(dp1
S'id'
p2
(dp3
S'sortable'
p4
I1
sS'sql'
p5
S'INT AUTO_INCREMENT NOT NULL'
p6
sS'length'
p7
I512
sS'notnull'
p8
I00
sS'unique'
p9
I00
sS'type'
p10
S'id'
p11
ssS'first_name'
p12
(dp13
g4
I2
sg5
S'VARCHAR(512)'
p14
sg7
I512
sg8
I00
sg9
I00
sg10
S'string'
p15
ssS'last_name'
p16
(dp17
g4
I3
sg5
S'VARCHAR(512)'
p18
sg7
I512
sg8
I00
sg9
I00
sg10
g15
ssS'email'
p19
(dp20
g4
I4
sg5
S'VARCHAR(512)'
p21
sg7
I512
sg8
I00
sg9
I00
sg10
g15
ss.