(dp1
S'output'
p2
S''
sS'layer'
p3
S'Framework'
p4
sS'code'
p5
S''
sS'snapshot'
p6
(dp7
sS'traceback'
p8
S'Traceback (most recent call last):\n  File "/home/darshan-ubuntu/Programming/web2py/gluon/main.py", line 442, in wsgibase\n    serve_controller(request, response, session)\n  File "/home/darshan-ubuntu/Programming/web2py/gluon/main.py", line 194, in serve_controller\n    run_view_in(response._view_environment)\n  File "/home/darshan-ubuntu/Programming/web2py/gluon/compileapp.py", line 708, in run_view_in\n    context=environment)\n  File "/home/darshan-ubuntu/Programming/web2py/gluon/template.py", line 794, in parse_template\n    return str(TemplateParser(text, context=context, path=path, lexers=lexers, delimiters=delimiters))\n  File "/home/darshan-ubuntu/Programming/web2py/gluon/template.py", line 329, in __str__\n    return self.to_string()\n  File "/home/darshan-ubuntu/Programming/web2py/gluon/template.py", line 325, in to_string\n    return self.reindent(str(self.content))\n  File "/home/darshan-ubuntu/Programming/web2py/gluon/template.py", line 168, in __str__\n    return \'\'.join(output_aux(node, self.blocks) for node in self.nodes)\n  File "/home/darshan-ubuntu/Programming/web2py/gluon/template.py", line 168, in <genexpr>\n    return \'\'.join(output_aux(node, self.blocks) for node in self.nodes)\n  File "/home/darshan-ubuntu/Programming/web2py/gluon/template.py", line 77, in output_aux\n    if isinstance(node, BlockNode) \\\n  File "/home/darshan-ubuntu/Programming/web2py/gluon/template.py", line 149, in output\n    return \'\'.join(output_aux(node, blocks) for node in self.nodes)\n  File "/home/darshan-ubuntu/Programming/web2py/gluon/template.py", line 149, in <genexpr>\n    return \'\'.join(output_aux(node, blocks) for node in self.nodes)\n  File "/home/darshan-ubuntu/Programming/web2py/gluon/template.py", line 77, in output_aux\n    if isinstance(node, BlockNode) \\\n  File "/home/darshan-ubuntu/Programming/web2py/gluon/template.py", line 149, in output\n    return \'\'.join(output_aux(node, blocks) for node in self.nodes)\n  File "/home/darshan-ubuntu/Programming/web2py/gluon/template.py", line 149, in <genexpr>\n    return \'\'.join(output_aux(node, blocks) for node in self.nodes)\n  File "/home/darshan-ubuntu/Programming/web2py/gluon/template.py", line 77, in output_aux\n    if isinstance(node, BlockNode) \\\n  File "/home/darshan-ubuntu/Programming/web2py/gluon/template.py", line 149, in output\n    return \'\'.join(output_aux(node, blocks) for node in self.nodes)\n  File "/home/darshan-ubuntu/Programming/web2py/gluon/template.py", line 149, in <genexpr>\n    return \'\'.join(output_aux(node, blocks) for node in self.nodes)\n  File "/home/darshan-ubuntu/Programming/web2py/gluon/template.py", line 77, in output_aux\n    if isinstance(node, BlockNode) \\\n  File "/home/darshan-ubuntu/Programming/web2py/gluon/template.py", line 149, in output\n    return \'\'.join(output_aux(node, blocks) for node in self.nodes)\n  File "/home/darshan-ubuntu/Programming/web2py/gluon/template.py", line 149, in <genexpr>\n    return \'\'.join(output_aux(node, blocks) for node in self.nodes)\n  File "/home/darshan-ubuntu/Programming/web2py/gluon/template.py", line 77, in output_aux\n    if isinstance(node, BlockNode) \\\n  File "/home/darshan-ubuntu/Programming/web2py/gluon/template.py", line 149, in output\n    return \'\'.join(output_aux(node, blocks) for node in self.nodes)\n  File "/home/darshan-ubuntu/Programming/web2py/gluon/template.py", line 149, in <genexpr>\n    return \'\'.join(output_aux(node, blocks) for node in self.nodes)\n  File "/home/darshan-ubuntu/Programming/web2py/gluon/template.py", line 77, in output_aux\n    if isinstance(node, BlockNode) \\\n  File "/home/darshan-ubuntu/Programming/web2py/gluon/template.py", line 149, in output\n    return \'\'.join(output_aux(node, blocks) for node in self.nodes)\n  File "/home/darshan-ubuntu/Programming/web2py/gluon/template.py", line 149, in <genexpr>\n    return \'\'.join(output_aux(node, blocks) for node in self.nodes)\n  File "/home/darshan-ubuntu/Programming/web2py/gluon/template.py", line 77, in output_aux\n    if isinstance(node, BlockNode) \\\n  File "/home/darshan-ubuntu/Programming/web2py/gluon/template.py", line 149, in output\n    return \'\'.join(output_aux(node, blocks) for node in self.nodes)\n  File "/home/darshan-ubuntu/Programming/web2py/gluon/template.py", line 149, in <genexpr>\n    return \'\'.join(output_aux(node, blocks) for node in self.nodes)\n  File "/home/darshan-ubuntu/Programming/web2py/gluon/template.py", line 77, in output_aux\n    if isinstance(node, BlockNode) \\\n  File "/home/darshan-ubuntu/Programming/web2py/gluon/template.py", line 149, in output\n    return \'\'.join(output_aux(node, blocks) for node in self.nodes)\n  File "/home/darshan-ubuntu/Programming/web2py/gluon/template.py", line 149, in <genexpr>\n    return \'\'.join(output_aux(node, blocks) for node in self.nodes)\n  File "/home/darshan-ubuntu/Programming/web2py/gluon/template.py", line 77, in output_aux\n    if isinstance(node, BlockNode) \\\n  File "/home/darshan-ubuntu/Programming/web2py/gluon/template.py", line 149, in output\n    return \'\'.join(output_aux(node, blocks) for node in self.nodes)\n  File "/home/darshan-ubuntu/Programming/web2py/gluon/template.py", line 149, in <genexpr>\n    return \'\'.join(output_aux(node, blocks) for node in self.nodes)\n  File "/home/darshan-ubuntu/Programming/web2py/gluon/template.py", line 77, in output_aux\n    if isinstance(node, BlockNode) \\\n  File "/home/darshan-ubuntu/Programming/web2py/gluon/template.py", line 149, in output\n    return \'\'.join(output_aux(node, blocks) for node in self.nodes)\n  File "/home/darshan-ubuntu/Programming/web2py/gluon/template.py", line 149, in <genexpr>\n    return \'\'.join(output_aux(node, blocks) for node in self.nodes)\n  File "/home/darshan-ubuntu/Programming/web2py/gluon/template.py", line 77, in output_aux\n    if isinstance(node, BlockNode) \\\n  File "/home/darshan-ubuntu/Programming/web2py/gluon/template.py", line 149, in output\n    return \'\'.join(output_aux(node, blocks) for node in self.nodes)\n  File "/home/darshan-ubuntu/Programming/web2py/gluon/template.py", line 149, in <genexpr>\n    return \'\'.join(output_aux(node, blocks) for node in self.nodes)\n  File "/home/darshan-ubuntu/Programming/web2py/gluon/template.py", line 77, in output_aux\n    if isinstance(node, BlockNode) \\\n  File "/home/darshan-ubuntu/Programming/web2py/gluon/template.py", line 149, in output\n    return \'\'.join(output_aux(node, blocks) for node in self.nodes)\n  File "/home/darshan-ubuntu/Programming/web2py/gluon/template.py", line 149, in <genexpr>\n    return \'\'.join(output_aux(node, blocks) for node in self.nodes)\n  File "/home/darshan-ubuntu/Programming/web2py/gluon/template.py", line 77, in output_aux\n    if isinstance(node, BlockNode) \\\n  File "/home/darshan-ubuntu/Programming/web2py/gluon/template.py", line 149, in output\n    return \'\'.join(output_aux(node, blocks) for node in self.nodes)\n  File "/home/darshan-ubuntu/Programming/web2py/gluon/template.py", line 149, in <genexpr>\n    return \'\'.join(output_aux(node, blocks) for node in self.nodes)\n  File "/home/darshan-ubuntu/Programming/web2py/gluon/template.py", line 77, in output_aux\n    if isinstance(node, BlockNode) \\\n  File "/home/darshan-ubuntu/Programming/web2py/gluon/template.py", line 149, in output\n    return \'\'.join(output_aux(node, blocks) for node in self.nodes)\n  File "/home/darshan-ubuntu/Programming/web2py/gluon/template.py", line 149, in <genexpr>\n    return \'\'.join(output_aux(node, blocks) for node in self.nodes)\n  File "/home/darshan-ubuntu/Programming/web2py/gluon/template.py", line 77, in output_aux\n    if isinstance(node, BlockNode) \\\n  File "/home/darshan-ubuntu/Programming/web2py/gluon/template.py", line 149, in output\n    return \'\'.join(output_aux(node, blocks) for node in self.nodes)\n  File "/home/darshan-ubuntu/Programming/web2py/gluon/template.py", line 149, in <genexpr>\n    return \'\'.join(output_aux(node, blocks) for node in self.nodes)\n  File "/home/darshan-ubuntu/Programming/web2py/gluon/template.py", line 77, in output_aux\n    if isinstance(node, BlockNode) \\\n  File "/home/darshan-ubuntu/Programming/web2py/gluon/template.py", line 149, in output\n    return \'\'.join(output_aux(node, blocks) for node in self.nodes)\n  File "/home/darshan-ubuntu/Programming/web2py/gluon/template.py", line 149, in <genexpr>\n    return \'\'.join(output_aux(node, blocks) for node in self.nodes)\n  File "/home/darshan-ubuntu/Programming/web2py/gluon/template.py", line 77, in output_aux\n    if isinstance(node, BlockNode) \\\n  File "/home/darshan-ubuntu/Programming/web2py/gluon/template.py", line 149, in output\n    return \'\'.join(output_aux(node, blocks) for node in self.nodes)\n  File "/home/darshan-ubuntu/Programming/web2py/gluon/template.py", line 149, in <genexpr>\n    return \'\'.join(output_aux(node, blocks) for node in self.nodes)\n  File "/home/darshan-ubuntu/Programming/web2py/gluon/template.py", line 77, in output_aux\n    if isinstance(node, BlockNode) \\\n  File "/home/darshan-ubuntu/Programming/web2py/gluon/template.py", line 149, in output\n    return \'\'.join(output_aux(node, blocks) for node in self.nodes)\n  File "/home/darshan-ubuntu/Programming/web2py/gluon/template.py", line 149, in <genexpr>\n    return \'\'.join(output_aux(node, blocks) for node in self.nodes)\n  File "/home/darshan-ubuntu/Programming/web2py/gluon/template.py", line 77, in output_aux\n    if isinstance(node, BlockNode) \\\n  File "/home/darshan-ubuntu/Programming/web2py/gluon/template.py", line 149, in output\n    return \'\'.join(output_aux(node, blocks) for node in self.nodes)\n  File "/home/darshan-ubuntu/Programming/web2py/gluon/template.py", line 149, in <genexpr>\n    return \'\'.join(output_aux(node, blocks) for node in self.nodes)\n  File "/home/darshan-ubuntu/Programming/web2py/gluon/template.py", line 77, in output_aux\n    if isinstance(node, BlockNode) \\\n  File "/home/darshan-ubuntu/Programming/web2py/gluon/template.py", line 149, in output\n    return \'\'.join(output_aux(node, blocks) for node in self.nodes)\n  File "/home/darshan-ubuntu/Programming/web2py/gluon/template.py", line 149, in <genexpr>\n    return \'\'.join(output_aux(node, blocks) for node in self.nodes)\n  File "/home/darshan-ubuntu/Programming/web2py/gluon/template.py", line 77, in output_aux\n    if isinstance(node, BlockNode) \\\n  File "/home/darshan-ubuntu/Programming/web2py/gluon/template.py", line 149, in output\n    return \'\'.join(output_aux(node, blocks) for node in self.nodes)\n  File "/home/darshan-ubuntu/Programming/web2py/gluon/template.py", line 149, in <genexpr>\n    return \'\'.join(output_aux(node, blocks) for node in self.nodes)\n  File "/home/darshan-ubuntu/Programming/web2py/gluon/template.py", line 77, in output_aux\n    if isinstance(node, BlockNode) \\\n  File "/home/darshan-ubuntu/Programming/web2py/gluon/template.py", line 149, in output\n    return \'\'.join(output_aux(node, blocks) for node in self.nodes)\n  File "/home/darshan-ubuntu/Programming/web2py/gluon/template.py", line 149, in <genexpr>\n    return \'\'.join(output_aux(node, blocks) for node in self.nodes)\n  File "/home/darshan-ubuntu/Programming/web2py/gluon/template.py", line 77, in output_aux\n    if isinstance(node, BlockNode) \\\n  File "/home/darshan-ubuntu/Programming/web2py/gluon/template.py", line 149, in output\n    return \'\'.join(output_aux(node, blocks) for node in self.nodes)\n  File "/home/darshan-ubuntu/Programming/web2py/gluon/template.py", line 149, in <genexpr>\n    return \'\'.join(output_aux(node, blocks) for node in self.nodes)\n  File "/home/darshan-ubuntu/Programming/web2py/gluon/template.py", line 77, in output_aux\n    if isinstance(node, BlockNode) \\\n  File "/home/darshan-ubuntu/Programming/web2py/gluon/template.py", line 149, in output\n    return \'\'.join(output_aux(node, blocks) for node in self.nodes)\n  File "/home/darshan-ubuntu/Programming/web2py/gluon/template.py", line 149, in <genexpr>\n    return \'\'.join(output_aux(node, blocks) for node in self.nodes)\n  File "/home/darshan-ubuntu/Programming/web2py/gluon/template.py", line 77, in output_aux\n    if isinstance(node, BlockNode) \\\n  File "/home/darshan-ubuntu/Programming/web2py/gluon/template.py", line 149, in output\n    return \'\'.join(output_aux(node, blocks) for node in self.nodes)\n  File "/home/darshan-ubuntu/Programming/web2py/gluon/template.py", line 149, in <genexpr>\n    return \'\'.join(output_aux(node, blocks) for node in self.nodes)\n  File "/home/darshan-ubuntu/Programming/web2py/gluon/template.py", line 77, in output_aux\n    if isinstance(node, BlockNode) \\\n  File "/home/darshan-ubuntu/Programming/web2py/gluon/template.py", line 149, in output\n    return \'\'.join(output_aux(node, blocks) for node in self.nodes)\n  File "/home/darshan-ubuntu/Programming/web2py/gluon/template.py", line 149, in <genexpr>\n    return \'\'.join(output_aux(node, blocks) for node in self.nodes)\n  File "/home/darshan-ubuntu/Programming/web2py/gluon/template.py", line 77, in output_aux\n    if isinstance(node, BlockNode) \\\n  File "/home/darshan-ubuntu/Programming/web2py/gluon/template.py", line 149, in output\n    return \'\'.join(output_aux(node, blocks) for node in self.nodes)\n  File "/home/darshan-ubuntu/Programming/web2py/gluon/template.py", line 149, in <genexpr>\n    return \'\'.join(output_aux(node, blocks) for node in self.nodes)\n  File "/home/darshan-ubuntu/Programming/web2py/gluon/template.py", line 77, in output_aux\n    if isinstance(node, BlockNode) \\\n  File "/home/darshan-ubuntu/Programming/web2py/gluon/template.py", line 149, in output\n    return \'\'.join(output_aux(node, blocks) for node in self.nodes)\n  File "/home/darshan-ubuntu/Programming/web2py/gluon/template.py", line 149, in <genexpr>\n    return \'\'.join(output_aux(node, blocks) for node in self.nodes)\n  File "/home/darshan-ubuntu/Programming/web2py/gluon/template.py", line 77, in output_aux\n    if isinstance(node, BlockNode) \\\n  File "/home/darshan-ubuntu/Programming/web2py/gluon/template.py", line 149, in output\n    return \'\'.join(output_aux(node, blocks) for node in self.nodes)\n  File "/home/darshan-ubuntu/Programming/web2py/gluon/template.py", line 149, in <genexpr>\n    return \'\'.join(output_aux(node, blocks) for node in self.nodes)\n  File "/home/darshan-ubuntu/Programming/web2py/gluon/template.py", line 77, in output_aux\n    if isinstance(node, BlockNode) \\\n  File "/home/darshan-ubuntu/Programming/web2py/gluon/template.py", line 149, in output\n    return \'\'.join(output_aux(node, blocks) for node in self.nodes)\n  File "/home/darshan-ubuntu/Programming/web2py/gluon/template.py", line 149, in <genexpr>\n    return \'\'.join(output_aux(node, blocks) for node in self.nodes)\n  File "/home/darshan-ubuntu/Programming/web2py/gluon/template.py", line 77, in output_aux\n    if isinstance(node, BlockNode) \\\n  File "/home/darshan-ubuntu/Programming/web2py/gluon/template.py", line 149, in output\n    return \'\'.join(output_aux(node, blocks) for node in self.nodes)\n  File "/home/darshan-ubuntu/Programming/web2py/gluon/template.py", line 149, in <genexpr>\n    return \'\'.join(output_aux(node, blocks) for node in self.nodes)\n  File "/home/darshan-ubuntu/Programming/web2py/gluon/template.py", line 77, in output_aux\n    if isinstance(node, BlockNode) \\\n  File "/home/darshan-ubuntu/Programming/web2py/gluon/template.py", line 149, in output\n    return \'\'.join(output_aux(node, blocks) for node in self.nodes)\n  File "/home/darshan-ubuntu/Programming/web2py/gluon/template.py", line 149, in <genexpr>\n    return \'\'.join(output_aux(node, blocks) for node in self.nodes)\n  File "/home/darshan-ubuntu/Programming/web2py/gluon/template.py", line 77, in output_aux\n    if isinstance(node, BlockNode) \\\n  File "/home/darshan-ubuntu/Programming/web2py/gluon/template.py", line 149, in output\n    return \'\'.join(output_aux(node, blocks) for node in self.nodes)\n  File "/home/darshan-ubuntu/Programming/web2py/gluon/template.py", line 149, in <genexpr>\n    return \'\'.join(output_aux(node, blocks) for node in self.nodes)\n  File "/home/darshan-ubuntu/Programming/web2py/gluon/template.py", line 77, in output_aux\n    if isinstance(node, BlockNode) \\\n  File "/home/darshan-ubuntu/Programming/web2py/gluon/template.py", line 149, in output\n    return \'\'.join(output_aux(node, blocks) for node in self.nodes)\n  File "/home/darshan-ubuntu/Programming/web2py/gluon/template.py", line 149, in <genexpr>\n    return \'\'.join(output_aux(node, blocks) for node in self.nodes)\n  File "/home/darshan-ubuntu/Programming/web2py/gluon/template.py", line 77, in output_aux\n    if isinstance(node, BlockNode) \\\n  File "/home/darshan-ubuntu/Programming/web2py/gluon/template.py", line 149, in output\n    return \'\'.join(output_aux(node, blocks) for node in self.nodes)\n  File "/home/darshan-ubuntu/Programming/web2py/gluon/template.py", line 149, in <genexpr>\n    return \'\'.join(output_aux(node, blocks) for node in self.nodes)\n  File "/home/darshan-ubuntu/Programming/web2py/gluon/template.py", line 77, in output_aux\n    if isinstance(node, BlockNode) \\\n  File "/home/darshan-ubuntu/Programming/web2py/gluon/template.py", line 149, in output\n    return \'\'.join(output_aux(node, blocks) for node in self.nodes)\n  File "/home/darshan-ubuntu/Programming/web2py/gluon/template.py", line 149, in <genexpr>\n    return \'\'.join(output_aux(node, blocks) for node in self.nodes)\n  File "/home/darshan-ubuntu/Programming/web2py/gluon/template.py", line 77, in output_aux\n    if isinstance(node, BlockNode) \\\n  File "/home/darshan-ubuntu/Programming/web2py/gluon/template.py", line 149, in output\n    return \'\'.join(output_aux(node, blocks) for node in self.nodes)\n  File "/home/darshan-ubuntu/Programming/web2py/gluon/template.py", line 149, in <genexpr>\n    return \'\'.join(output_aux(node, blocks) for node in self.nodes)\n  File "/home/darshan-ubuntu/Programming/web2py/gluon/template.py", line 77, in output_aux\n    if isinstance(node, BlockNode) \\\n  File "/home/darshan-ubuntu/Programming/web2py/gluon/template.py", line 149, in output\n    return \'\'.join(output_aux(node, blocks) for node in self.nodes)\n  File "/home/darshan-ubuntu/Programming/web2py/gluon/template.py", line 149, in <genexpr>\n    return \'\'.join(output_aux(node, blocks) for node in self.nodes)\n  File "/home/darshan-ubuntu/Programming/web2py/gluon/template.py", line 77, in output_aux\n    if isinstance(node, BlockNode) \\\n  File "/home/darshan-ubuntu/Programming/web2py/gluon/template.py", line 149, in output\n    return \'\'.join(output_aux(node, blocks) for node in self.nodes)\n  File "/home/darshan-ubuntu/Programming/web2py/gluon/template.py", line 149, in <genexpr>\n    return \'\'.join(output_aux(node, blocks) for node in self.nodes)\n  File "/home/darshan-ubuntu/Programming/web2py/gluon/template.py", line 77, in output_aux\n    if isinstance(node, BlockNode) \\\n  File "/home/darshan-ubuntu/Programming/web2py/gluon/template.py", line 149, in output\n    return \'\'.join(output_aux(node, blocks) for node in self.nodes)\n  File "/home/darshan-ubuntu/Programming/web2py/gluon/template.py", line 149, in <genexpr>\n    return \'\'.join(output_aux(node, blocks) for node in self.nodes)\n  File "/home/darshan-ubuntu/Programming/web2py/gluon/template.py", line 77, in output_aux\n    if isinstance(node, BlockNode) \\\n  File "/home/darshan-ubuntu/Programming/web2py/gluon/template.py", line 149, in output\n    return \'\'.join(output_aux(node, blocks) for node in self.nodes)\n  File "/home/darshan-ubuntu/Programming/web2py/gluon/template.py", line 149, in <genexpr>\n    return \'\'.join(output_aux(node, blocks) for node in self.nodes)\n  File "/home/darshan-ubuntu/Programming/web2py/gluon/template.py", line 77, in output_aux\n    if isinstance(node, BlockNode) \\\n  File "/home/darshan-ubuntu/Programming/web2py/gluon/template.py", line 149, in output\n    return \'\'.join(output_aux(node, blocks) for node in self.nodes)\n  File "/home/darshan-ubuntu/Programming/web2py/gluon/template.py", line 149, in <genexpr>\n    return \'\'.join(output_aux(node, blocks) for node in self.nodes)\n  File "/home/darshan-ubuntu/Programming/web2py/gluon/template.py", line 77, in output_aux\n    if isinstance(node, BlockNode) \\\n  File "/home/darshan-ubuntu/Programming/web2py/gluon/template.py", line 149, in output\n    return \'\'.join(output_aux(node, blocks) for node in self.nodes)\n  File "/home/darshan-ubuntu/Programming/web2py/gluon/template.py", line 149, in <genexpr>\n    return \'\'.join(output_aux(node, blocks) for node in self.nodes)\n  File "/home/darshan-ubuntu/Programming/web2py/gluon/template.py", line 77, in output_aux\n    if isinstance(node, BlockNode) \\\n  File "/home/darshan-ubuntu/Programming/web2py/gluon/template.py", line 149, in output\n    return \'\'.join(output_aux(node, blocks) for node in self.nodes)\n  File "/home/darshan-ubuntu/Programming/web2py/gluon/template.py", line 149, in <genexpr>\n    return \'\'.join(output_aux(node, blocks) for node in self.nodes)\n  File "/home/darshan-ubuntu/Programming/web2py/gluon/template.py", line 77, in output_aux\n    if isinstance(node, BlockNode) \\\n  File "/home/darshan-ubuntu/Programming/web2py/gluon/template.py", line 149, in output\n    return \'\'.join(output_aux(node, blocks) for node in self.nodes)\n  File "/home/darshan-ubuntu/Programming/web2py/gluon/template.py", line 149, in <genexpr>\n    return \'\'.join(output_aux(node, blocks) for node in self.nodes)\n  File "/home/darshan-ubuntu/Programming/web2py/gluon/template.py", line 77, in output_aux\n    if isinstance(node, BlockNode) \\\n  File "/home/darshan-ubuntu/Programming/web2py/gluon/template.py", line 149, in output\n    return \'\'.join(output_aux(node, blocks) for node in self.nodes)\n  File "/home/darshan-ubuntu/Programming/web2py/gluon/template.py", line 149, in <genexpr>\n    return \'\'.join(output_aux(node, blocks) for node in self.nodes)\n  File "/home/darshan-ubuntu/Programming/web2py/gluon/template.py", line 77, in output_aux\n    if isinstance(node, BlockNode) \\\n  File "/home/darshan-ubuntu/Programming/web2py/gluon/template.py", line 149, in output\n    return \'\'.join(output_aux(node, blocks) for node in self.nodes)\n  File "/home/darshan-ubuntu/Programming/web2py/gluon/template.py", line 149, in <genexpr>\n    return \'\'.join(output_aux(node, blocks) for node in self.nodes)\n  File "/home/darshan-ubuntu/Programming/web2py/gluon/template.py", line 77, in output_aux\n    if isinstance(node, BlockNode) \\\n  File "/home/darshan-ubuntu/Programming/web2py/gluon/template.py", line 149, in output\n    return \'\'.join(output_aux(node, blocks) for node in self.nodes)\n  File "/home/darshan-ubuntu/Programming/web2py/gluon/template.py", line 149, in <genexpr>\n    return \'\'.join(output_aux(node, blocks) for node in self.nodes)\n  File "/home/darshan-ubuntu/Programming/web2py/gluon/template.py", line 77, in output_aux\n    if isinstance(node, BlockNode) \\\n  File "/home/darshan-ubuntu/Programming/web2py/gluon/template.py", line 149, in output\n    return \'\'.join(output_aux(node, blocks) for node in self.nodes)\n  File "/home/darshan-ubuntu/Programming/web2py/gluon/template.py", line 149, in <genexpr>\n    return \'\'.join(output_aux(node, blocks) for node in self.nodes)\n  File "/home/darshan-ubuntu/Programming/web2py/gluon/template.py", line 77, in output_aux\n    if isinstance(node, BlockNode) \\\n  File "/home/darshan-ubuntu/Programming/web2py/gluon/template.py", line 149, in output\n    return \'\'.join(output_aux(node, blocks) for node in self.nodes)\n  File "/home/darshan-ubuntu/Programming/web2py/gluon/template.py", line 149, in <genexpr>\n    return \'\'.join(output_aux(node, blocks) for node in self.nodes)\n  File "/home/darshan-ubuntu/Programming/web2py/gluon/template.py", line 77, in output_aux\n    if isinstance(node, BlockNode) \\\n  File "/home/darshan-ubuntu/Programming/web2py/gluon/template.py", line 149, in output\n    return \'\'.join(output_aux(node, blocks) for node in self.nodes)\n  File "/home/darshan-ubuntu/Programming/web2py/gluon/template.py", line 149, in <genexpr>\n    return \'\'.join(output_aux(node, blocks) for node in self.nodes)\n  File "/home/darshan-ubuntu/Programming/web2py/gluon/template.py", line 77, in output_aux\n    if isinstance(node, BlockNode) \\\n  File "/home/darshan-ubuntu/Programming/web2py/gluon/template.py", line 149, in output\n    return \'\'.join(output_aux(node, blocks) for node in self.nodes)\n  File "/home/darshan-ubuntu/Programming/web2py/gluon/template.py", line 149, in <genexpr>\n    return \'\'.join(output_aux(node, blocks) for node in self.nodes)\n  File "/home/darshan-ubuntu/Programming/web2py/gluon/template.py", line 77, in output_aux\n    if isinstance(node, BlockNode) \\\n  File "/home/darshan-ubuntu/Programming/web2py/gluon/template.py", line 149, in output\n    return \'\'.join(output_aux(node, blocks) for node in self.nodes)\n  File "/home/darshan-ubuntu/Programming/web2py/gluon/template.py", line 149, in <genexpr>\n    return \'\'.join(output_aux(node, blocks) for node in self.nodes)\n  File "/home/darshan-ubuntu/Programming/web2py/gluon/template.py", line 77, in output_aux\n    if isinstance(node, BlockNode) \\\n  File "/home/darshan-ubuntu/Programming/web2py/gluon/template.py", line 149, in output\n    return \'\'.join(output_aux(node, blocks) for node in self.nodes)\n  File "/home/darshan-ubuntu/Programming/web2py/gluon/template.py", line 149, in <genexpr>\n    return \'\'.join(output_aux(node, blocks) for node in self.nodes)\n  File "/home/darshan-ubuntu/Programming/web2py/gluon/template.py", line 77, in output_aux\n    if isinstance(node, BlockNode) \\\n  File "/home/darshan-ubuntu/Programming/web2py/gluon/template.py", line 149, in output\n    return \'\'.join(output_aux(node, blocks) for node in self.nodes)\n  File "/home/darshan-ubuntu/Programming/web2py/gluon/template.py", line 149, in <genexpr>\n    return \'\'.join(output_aux(node, blocks) for node in self.nodes)\n  File "/home/darshan-ubuntu/Programming/web2py/gluon/template.py", line 77, in output_aux\n    if isinstance(node, BlockNode) \\\n  File "/home/darshan-ubuntu/Programming/web2py/gluon/template.py", line 149, in output\n    return \'\'.join(output_aux(node, blocks) for node in self.nodes)\n  File "/home/darshan-ubuntu/Programming/web2py/gluon/template.py", line 149, in <genexpr>\n    return \'\'.join(output_aux(node, blocks) for node in self.nodes)\n  File "/home/darshan-ubuntu/Programming/web2py/gluon/template.py", line 77, in output_aux\n    if isinstance(node, BlockNode) \\\n  File "/home/darshan-ubuntu/Programming/web2py/gluon/template.py", line 149, in output\n    return \'\'.join(output_aux(node, blocks) for node in self.nodes)\n  File "/home/darshan-ubuntu/Programming/web2py/gluon/template.py", line 149, in <genexpr>\n    return \'\'.join(output_aux(node, blocks) for node in self.nodes)\n  File "/home/darshan-ubuntu/Programming/web2py/gluon/template.py", line 77, in output_aux\n    if isinstance(node, BlockNode) \\\n  File "/home/darshan-ubuntu/Programming/web2py/gluon/template.py", line 149, in output\n    return \'\'.join(output_aux(node, blocks) for node in self.nodes)\n  File "/home/darshan-ubuntu/Programming/web2py/gluon/template.py", line 149, in <genexpr>\n    return \'\'.join(output_aux(node, blocks) for node in self.nodes)\n  File "/home/darshan-ubuntu/Programming/web2py/gluon/template.py", line 77, in output_aux\n    if isinstance(node, BlockNode) \\\n  File "/home/darshan-ubuntu/Programming/web2py/gluon/template.py", line 149, in output\n    return \'\'.join(output_aux(node, blocks) for node in self.nodes)\n  File "/home/darshan-ubuntu/Programming/web2py/gluon/template.py", line 149, in <genexpr>\n    return \'\'.join(output_aux(node, blocks) for node in self.nodes)\n  File "/home/darshan-ubuntu/Programming/web2py/gluon/template.py", line 77, in output_aux\n    if isinstance(node, BlockNode) \\\n  File "/home/darshan-ubuntu/Programming/web2py/gluon/template.py", line 149, in output\n    return \'\'.join(output_aux(node, blocks) for node in self.nodes)\n  File "/home/darshan-ubuntu/Programming/web2py/gluon/template.py", line 149, in <genexpr>\n    return \'\'.join(output_aux(node, blocks) for node in self.nodes)\n  File "/home/darshan-ubuntu/Programming/web2py/gluon/template.py", line 77, in output_aux\n    if isinstance(node, BlockNode) \\\n  File "/home/darshan-ubuntu/Programming/web2py/gluon/template.py", line 149, in output\n    return \'\'.join(output_aux(node, blocks) for node in self.nodes)\n  File "/home/darshan-ubuntu/Programming/web2py/gluon/template.py", line 149, in <genexpr>\n    return \'\'.join(output_aux(node, blocks) for node in self.nodes)\n  File "/home/darshan-ubuntu/Programming/web2py/gluon/template.py", line 77, in output_aux\n    if isinstance(node, BlockNode) \\\n  File "/home/darshan-ubuntu/Programming/web2py/gluon/template.py", line 149, in output\n    return \'\'.join(output_aux(node, blocks) for node in self.nodes)\n  File "/home/darshan-ubuntu/Programming/web2py/gluon/template.py", line 149, in <genexpr>\n    return \'\'.join(output_aux(node, blocks) for node in self.nodes)\n  File "/home/darshan-ubuntu/Programming/web2py/gluon/template.py", line 77, in output_aux\n    if isinstance(node, BlockNode) \\\n  File "/home/darshan-ubuntu/Programming/web2py/gluon/template.py", line 149, in output\n    return \'\'.join(output_aux(node, blocks) for node in self.nodes)\n  File "/home/darshan-ubuntu/Programming/web2py/gluon/template.py", line 149, in <genexpr>\n    return \'\'.join(output_aux(node, blocks) for node in self.nodes)\n  File "/home/darshan-ubuntu/Programming/web2py/gluon/template.py", line 77, in output_aux\n    if isinstance(node, BlockNode) \\\n  File "/home/darshan-ubuntu/Programming/web2py/gluon/template.py", line 149, in output\n    return \'\'.join(output_aux(node, blocks) for node in self.nodes)\n  File "/home/darshan-ubuntu/Programming/web2py/gluon/template.py", line 149, in <genexpr>\n    return \'\'.join(output_aux(node, blocks) for node in self.nodes)\n  File "/home/darshan-ubuntu/Programming/web2py/gluon/template.py", line 77, in output_aux\n    if isinstance(node, BlockNode) \\\n  File "/home/darshan-ubuntu/Programming/web2py/gluon/template.py", line 149, in output\n    return \'\'.join(output_aux(node, blocks) for node in self.nodes)\n  File "/home/darshan-ubuntu/Programming/web2py/gluon/template.py", line 149, in <genexpr>\n    return \'\'.join(output_aux(node, blocks) for node in self.nodes)\n  File "/home/darshan-ubuntu/Programming/web2py/gluon/template.py", line 77, in output_aux\n    if isinstance(node, BlockNode) \\\n  File "/home/darshan-ubuntu/Programming/web2py/gluon/template.py", line 149, in output\n    return \'\'.join(output_aux(node, blocks) for node in self.nodes)\n  File "/home/darshan-ubuntu/Programming/web2py/gluon/template.py", line 149, in <genexpr>\n    return \'\'.join(output_aux(node, blocks) for node in self.nodes)\n  File "/home/darshan-ubuntu/Programming/web2py/gluon/template.py", line 77, in output_aux\n    if isinstance(node, BlockNode) \\\n  File "/home/darshan-ubuntu/Programming/web2py/gluon/template.py", line 149, in output\n    return \'\'.join(output_aux(node, blocks) for node in self.nodes)\n  File "/home/darshan-ubuntu/Programming/web2py/gluon/template.py", line 149, in <genexpr>\n    return \'\'.join(output_aux(node, blocks) for node in self.nodes)\n  File "/home/darshan-ubuntu/Programming/web2py/gluon/template.py", line 77, in output_aux\n    if isinstance(node, BlockNode) \\\n  File "/home/darshan-ubuntu/Programming/web2py/gluon/template.py", line 149, in output\n    return \'\'.join(output_aux(node, blocks) for node in self.nodes)\n  File "/home/darshan-ubuntu/Programming/web2py/gluon/template.py", line 149, in <genexpr>\n    return \'\'.join(output_aux(node, blocks) for node in self.nodes)\n  File "/home/darshan-ubuntu/Programming/web2py/gluon/template.py", line 77, in output_aux\n    if isinstance(node, BlockNode) \\\n  File "/home/darshan-ubuntu/Programming/web2py/gluon/template.py", line 149, in output\n    return \'\'.join(output_aux(node, blocks) for node in self.nodes)\n  File "/home/darshan-ubuntu/Programming/web2py/gluon/template.py", line 149, in <genexpr>\n    return \'\'.join(output_aux(node, blocks) for node in self.nodes)\n  File "/home/darshan-ubuntu/Programming/web2py/gluon/template.py", line 77, in output_aux\n    if isinstance(node, BlockNode) \\\n  File "/home/darshan-ubuntu/Programming/web2py/gluon/template.py", line 149, in output\n    return \'\'.join(output_aux(node, blocks) for node in self.nodes)\n  File "/home/darshan-ubuntu/Programming/web2py/gluon/template.py", line 149, in <genexpr>\n    return \'\'.join(output_aux(node, blocks) for node in self.nodes)\n  File "/home/darshan-ubuntu/Programming/web2py/gluon/template.py", line 77, in output_aux\n    if isinstance(node, BlockNode) \\\n  File "/home/darshan-ubuntu/Programming/web2py/gluon/template.py", line 149, in output\n    return \'\'.join(output_aux(node, blocks) for node in self.nodes)\n  File "/home/darshan-ubuntu/Programming/web2py/gluon/template.py", line 149, in <genexpr>\n    return \'\'.join(output_aux(node, blocks) for node in self.nodes)\n  File "/home/darshan-ubuntu/Programming/web2py/gluon/template.py", line 77, in output_aux\n    if isinstance(node, BlockNode) \\\n  File "/home/darshan-ubuntu/Programming/web2py/gluon/template.py", line 149, in output\n    return \'\'.join(output_aux(node, blocks) for node in self.nodes)\n  File "/home/darshan-ubuntu/Programming/web2py/gluon/template.py", line 149, in <genexpr>\n    return \'\'.join(output_aux(node, blocks) for node in self.nodes)\n  File "/home/darshan-ubuntu/Programming/web2py/gluon/template.py", line 77, in output_aux\n    if isinstance(node, BlockNode) \\\n  File "/home/darshan-ubuntu/Programming/web2py/gluon/template.py", line 149, in output\n    return \'\'.join(output_aux(node, blocks) for node in self.nodes)\n  File "/home/darshan-ubuntu/Programming/web2py/gluon/template.py", line 149, in <genexpr>\n    return \'\'.join(output_aux(node, blocks) for node in self.nodes)\n  File "/home/darshan-ubuntu/Programming/web2py/gluon/template.py", line 77, in output_aux\n    if isinstance(node, BlockNode) \\\n  File "/home/darshan-ubuntu/Programming/web2py/gluon/template.py", line 149, in output\n    return \'\'.join(output_aux(node, blocks) for node in self.nodes)\n  File "/home/darshan-ubuntu/Programming/web2py/gluon/template.py", line 149, in <genexpr>\n    return \'\'.join(output_aux(node, blocks) for node in self.nodes)\n  File "/home/darshan-ubuntu/Programming/web2py/gluon/template.py", line 77, in output_aux\n    if isinstance(node, BlockNode) \\\n  File "/home/darshan-ubuntu/Programming/web2py/gluon/template.py", line 149, in output\n    return \'\'.join(output_aux(node, blocks) for node in self.nodes)\n  File "/home/darshan-ubuntu/Programming/web2py/gluon/template.py", line 149, in <genexpr>\n    return \'\'.join(output_aux(node, blocks) for node in self.nodes)\n  File "/home/darshan-ubuntu/Programming/web2py/gluon/template.py", line 77, in output_aux\n    if isinstance(node, BlockNode) \\\n  File "/home/darshan-ubuntu/Programming/web2py/gluon/template.py", line 149, in output\n    return \'\'.join(output_aux(node, blocks) for node in self.nodes)\n  File "/home/darshan-ubuntu/Programming/web2py/gluon/template.py", line 149, in <genexpr>\n    return \'\'.join(output_aux(node, blocks) for node in self.nodes)\n  File "/home/darshan-ubuntu/Programming/web2py/gluon/template.py", line 77, in output_aux\n    if isinstance(node, BlockNode) \\\n  File "/home/darshan-ubuntu/Programming/web2py/gluon/template.py", line 149, in output\n    return \'\'.join(output_aux(node, blocks) for node in self.nodes)\n  File "/home/darshan-ubuntu/Programming/web2py/gluon/template.py", line 149, in <genexpr>\n    return \'\'.join(output_aux(node, blocks) for node in self.nodes)\n  File "/home/darshan-ubuntu/Programming/web2py/gluon/template.py", line 77, in output_aux\n    if isinstance(node, BlockNode) \\\n  File "/home/darshan-ubuntu/Programming/web2py/gluon/template.py", line 149, in output\n    return \'\'.join(output_aux(node, blocks) for node in self.nodes)\n  File "/home/darshan-ubuntu/Programming/web2py/gluon/template.py", line 149, in <genexpr>\n    return \'\'.join(output_aux(node, blocks) for node in self.nodes)\n  File "/home/darshan-ubuntu/Programming/web2py/gluon/template.py", line 77, in output_aux\n    if isinstance(node, BlockNode) \\\n  File "/home/darshan-ubuntu/Programming/web2py/gluon/template.py", line 149, in output\n    return \'\'.join(output_aux(node, blocks) for node in self.nodes)\n  File "/home/darshan-ubuntu/Programming/web2py/gluon/template.py", line 149, in <genexpr>\n    return \'\'.join(output_aux(node, blocks) for node in self.nodes)\n  File "/home/darshan-ubuntu/Programming/web2py/gluon/template.py", line 77, in output_aux\n    if isinstance(node, BlockNode) \\\n  File "/home/darshan-ubuntu/Programming/web2py/gluon/template.py", line 149, in output\n    return \'\'.join(output_aux(node, blocks) for node in self.nodes)\n  File "/home/darshan-ubuntu/Programming/web2py/gluon/template.py", line 149, in <genexpr>\n    return \'\'.join(output_aux(node, blocks) for node in self.nodes)\n  File "/home/darshan-ubuntu/Programming/web2py/gluon/template.py", line 77, in output_aux\n    if isinstance(node, BlockNode) \\\n  File "/home/darshan-ubuntu/Programming/web2py/gluon/template.py", line 149, in output\n    return \'\'.join(output_aux(node, blocks) for node in self.nodes)\n  File "/home/darshan-ubuntu/Programming/web2py/gluon/template.py", line 149, in <genexpr>\n    return \'\'.join(output_aux(node, blocks) for node in self.nodes)\n  File "/home/darshan-ubuntu/Programming/web2py/gluon/template.py", line 77, in output_aux\n    if isinstance(node, BlockNode) \\\n  File "/home/darshan-ubuntu/Programming/web2py/gluon/template.py", line 149, in output\n    return \'\'.join(output_aux(node, blocks) for node in self.nodes)\n  File "/home/darshan-ubuntu/Programming/web2py/gluon/template.py", line 149, in <genexpr>\n    return \'\'.join(output_aux(node, blocks) for node in self.nodes)\n  File "/home/darshan-ubuntu/Programming/web2py/gluon/template.py", line 77, in output_aux\n    if isinstance(node, BlockNode) \\\n  File "/home/darshan-ubuntu/Programming/web2py/gluon/template.py", line 149, in output\n    return \'\'.join(output_aux(node, blocks) for node in self.nodes)\n  File "/home/darshan-ubuntu/Programming/web2py/gluon/template.py", line 149, in <genexpr>\n    return \'\'.join(output_aux(node, blocks) for node in self.nodes)\n  File "/home/darshan-ubuntu/Programming/web2py/gluon/template.py", line 77, in output_aux\n    if isinstance(node, BlockNode) \\\n  File "/home/darshan-ubuntu/Programming/web2py/gluon/template.py", line 149, in output\n    return \'\'.join(output_aux(node, blocks) for node in self.nodes)\n  File "/home/darshan-ubuntu/Programming/web2py/gluon/template.py", line 149, in <genexpr>\n    return \'\'.join(output_aux(node, blocks) for node in self.nodes)\n  File "/home/darshan-ubuntu/Programming/web2py/gluon/template.py", line 77, in output_aux\n    if isinstance(node, BlockNode) \\\n  File "/home/darshan-ubuntu/Programming/web2py/gluon/template.py", line 149, in output\n    return \'\'.join(output_aux(node, blocks) for node in self.nodes)\n  File "/home/darshan-ubuntu/Programming/web2py/gluon/template.py", line 149, in <genexpr>\n    return \'\'.join(output_aux(node, blocks) for node in self.nodes)\n  File "/home/darshan-ubuntu/Programming/web2py/gluon/template.py", line 77, in output_aux\n    if isinstance(node, BlockNode) \\\n  File "/home/darshan-ubuntu/Programming/web2py/gluon/template.py", line 149, in output\n    return \'\'.join(output_aux(node, blocks) for node in self.nodes)\n  File "/home/darshan-ubuntu/Programming/web2py/gluon/template.py", line 149, in <genexpr>\n    return \'\'.join(output_aux(node, blocks) for node in self.nodes)\n  File "/home/darshan-ubuntu/Programming/web2py/gluon/template.py", line 77, in output_aux\n    if isinstance(node, BlockNode) \\\n  File "/home/darshan-ubuntu/Programming/web2py/gluon/template.py", line 149, in output\n    return \'\'.join(output_aux(node, blocks) for node in self.nodes)\n  File "/home/darshan-ubuntu/Programming/web2py/gluon/template.py", line 149, in <genexpr>\n    return \'\'.join(output_aux(node, blocks) for node in self.nodes)\n  File "/home/darshan-ubuntu/Programming/web2py/gluon/template.py", line 77, in output_aux\n    if isinstance(node, BlockNode) \\\n  File "/home/darshan-ubuntu/Programming/web2py/gluon/template.py", line 149, in output\n    return \'\'.join(output_aux(node, blocks) for node in self.nodes)\n  File "/home/darshan-ubuntu/Programming/web2py/gluon/template.py", line 149, in <genexpr>\n    return \'\'.join(output_aux(node, blocks) for node in self.nodes)\n  File "/home/darshan-ubuntu/Programming/web2py/gluon/template.py", line 77, in output_aux\n    if isinstance(node, BlockNode) \\\n  File "/home/darshan-ubuntu/Programming/web2py/gluon/template.py", line 149, in output\n    return \'\'.join(output_aux(node, blocks) for node in self.nodes)\n  File "/home/darshan-ubuntu/Programming/web2py/gluon/template.py", line 149, in <genexpr>\n    return \'\'.join(output_aux(node, blocks) for node in self.nodes)\n  File "/home/darshan-ubuntu/Programming/web2py/gluon/template.py", line 77, in output_aux\n    if isinstance(node, BlockNode) \\\n  File "/home/darshan-ubuntu/Programming/web2py/gluon/template.py", line 149, in output\n    return \'\'.join(output_aux(node, blocks) for node in self.nodes)\n  File "/home/darshan-ubuntu/Programming/web2py/gluon/template.py", line 149, in <genexpr>\n    return \'\'.join(output_aux(node, blocks) for node in self.nodes)\n  File "/home/darshan-ubuntu/Programming/web2py/gluon/template.py", line 77, in output_aux\n    if isinstance(node, BlockNode) \\\n  File "/home/darshan-ubuntu/Programming/web2py/gluon/template.py", line 149, in output\n    return \'\'.join(output_aux(node, blocks) for node in self.nodes)\n  File "/home/darshan-ubuntu/Programming/web2py/gluon/template.py", line 149, in <genexpr>\n    return \'\'.join(output_aux(node, blocks) for node in self.nodes)\n  File "/home/darshan-ubuntu/Programming/web2py/gluon/template.py", line 77, in output_aux\n    if isinstance(node, BlockNode) \\\n  File "/home/darshan-ubuntu/Programming/web2py/gluon/template.py", line 149, in output\n    return \'\'.join(output_aux(node, blocks) for node in self.nodes)\n  File "/home/darshan-ubuntu/Programming/web2py/gluon/template.py", line 149, in <genexpr>\n    return \'\'.join(output_aux(node, blocks) for node in self.nodes)\n  File "/home/darshan-ubuntu/Programming/web2py/gluon/template.py", line 77, in output_aux\n    if isinstance(node, BlockNode) \\\n  File "/home/darshan-ubuntu/Programming/web2py/gluon/template.py", line 149, in output\n    return \'\'.join(output_aux(node, blocks) for node in self.nodes)\n  File "/home/darshan-ubuntu/Programming/web2py/gluon/template.py", line 149, in <genexpr>\n    return \'\'.join(output_aux(node, blocks) for node in self.nodes)\n  File "/home/darshan-ubuntu/Programming/web2py/gluon/template.py", line 77, in output_aux\n    if isinstance(node, BlockNode) \\\n  File "/home/darshan-ubuntu/Programming/web2py/gluon/template.py", line 149, in output\n    return \'\'.join(output_aux(node, blocks) for node in self.nodes)\n  File "/home/darshan-ubuntu/Programming/web2py/gluon/template.py", line 149, in <genexpr>\n    return \'\'.join(output_aux(node, blocks) for node in self.nodes)\n  File "/home/darshan-ubuntu/Programming/web2py/gluon/template.py", line 77, in output_aux\n    if isinstance(node, BlockNode) \\\n  File "/home/darshan-ubuntu/Programming/web2py/gluon/template.py", line 149, in output\n    return \'\'.join(output_aux(node, blocks) for node in self.nodes)\n  File "/home/darshan-ubuntu/Programming/web2py/gluon/template.py", line 149, in <genexpr>\n    return \'\'.join(output_aux(node, blocks) for node in self.nodes)\n  File "/home/darshan-ubuntu/Programming/web2py/gluon/template.py", line 77, in output_aux\n    if isinstance(node, BlockNode) \\\n  File "/home/darshan-ubuntu/Programming/web2py/gluon/template.py", line 149, in output\n    return \'\'.join(output_aux(node, blocks) for node in self.nodes)\n  File "/home/darshan-ubuntu/Programming/web2py/gluon/template.py", line 149, in <genexpr>\n    return \'\'.join(output_aux(node, blocks) for node in self.nodes)\n  File "/home/darshan-ubuntu/Programming/web2py/gluon/template.py", line 77, in output_aux\n    if isinstance(node, BlockNode) \\\n  File "/home/darshan-ubuntu/Programming/web2py/gluon/template.py", line 149, in output\n    return \'\'.join(output_aux(node, blocks) for node in self.nodes)\n  File "/home/darshan-ubuntu/Programming/web2py/gluon/template.py", line 149, in <genexpr>\n    return \'\'.join(output_aux(node, blocks) for node in self.nodes)\n  File "/home/darshan-ubuntu/Programming/web2py/gluon/template.py", line 77, in output_aux\n    if isinstance(node, BlockNode) \\\n  File "/home/darshan-ubuntu/Programming/web2py/gluon/template.py", line 149, in output\n    return \'\'.join(output_aux(node, blocks) for node in self.nodes)\n  File "/home/darshan-ubuntu/Programming/web2py/gluon/template.py", line 149, in <genexpr>\n    return \'\'.join(output_aux(node, blocks) for node in self.nodes)\n  File "/home/darshan-ubuntu/Programming/web2py/gluon/template.py", line 77, in output_aux\n    if isinstance(node, BlockNode) \\\n  File "/home/darshan-ubuntu/Programming/web2py/gluon/template.py", line 149, in output\n    return \'\'.join(output_aux(node, blocks) for node in self.nodes)\n  File "/home/darshan-ubuntu/Programming/web2py/gluon/template.py", line 149, in <genexpr>\n    return \'\'.join(output_aux(node, blocks) for node in self.nodes)\n  File "/home/darshan-ubuntu/Programming/web2py/gluon/template.py", line 77, in output_aux\n    if isinstance(node, BlockNode) \\\n  File "/home/darshan-ubuntu/Programming/web2py/gluon/template.py", line 149, in output\n    return \'\'.join(output_aux(node, blocks) for node in self.nodes)\n  File "/home/darshan-ubuntu/Programming/web2py/gluon/template.py", line 149, in <genexpr>\n    return \'\'.join(output_aux(node, blocks) for node in self.nodes)\n  File "/home/darshan-ubuntu/Programming/web2py/gluon/template.py", line 77, in output_aux\n    if isinstance(node, BlockNode) \\\n  File "/home/darshan-ubuntu/Programming/web2py/gluon/template.py", line 149, in output\n    return \'\'.join(output_aux(node, blocks) for node in self.nodes)\n  File "/home/darshan-ubuntu/Programming/web2py/gluon/template.py", line 149, in <genexpr>\n    return \'\'.join(output_aux(node, blocks) for node in self.nodes)\n  File "/home/darshan-ubuntu/Programming/web2py/gluon/template.py", line 77, in output_aux\n    if isinstance(node, BlockNode) \\\n  File "/home/darshan-ubuntu/Programming/web2py/gluon/template.py", line 149, in output\n    return \'\'.join(output_aux(node, blocks) for node in self.nodes)\n  File "/home/darshan-ubuntu/Programming/web2py/gluon/template.py", line 149, in <genexpr>\n    return \'\'.join(output_aux(node, blocks) for node in self.nodes)\n  File "/home/darshan-ubuntu/Programming/web2py/gluon/template.py", line 77, in output_aux\n    if isinstance(node, BlockNode) \\\n  File "/home/darshan-ubuntu/Programming/web2py/gluon/template.py", line 149, in output\n    return \'\'.join(output_aux(node, blocks) for node in self.nodes)\n  File "/home/darshan-ubuntu/Programming/web2py/gluon/template.py", line 149, in <genexpr>\n    return \'\'.join(output_aux(node, blocks) for node in self.nodes)\n  File "/home/darshan-ubuntu/Programming/web2py/gluon/template.py", line 77, in output_aux\n    if isinstance(node, BlockNode) \\\n  File "/home/darshan-ubuntu/Programming/web2py/gluon/template.py", line 149, in output\n    return \'\'.join(output_aux(node, blocks) for node in self.nodes)\n  File "/home/darshan-ubuntu/Programming/web2py/gluon/template.py", line 149, in <genexpr>\n    return \'\'.join(output_aux(node, blocks) for node in self.nodes)\n  File "/home/darshan-ubuntu/Programming/web2py/gluon/template.py", line 77, in output_aux\n    if isinstance(node, BlockNode) \\\n  File "/home/darshan-ubuntu/Programming/web2py/gluon/template.py", line 149, in output\n    return \'\'.join(output_aux(node, blocks) for node in self.nodes)\n  File "/home/darshan-ubuntu/Programming/web2py/gluon/template.py", line 149, in <genexpr>\n    return \'\'.join(output_aux(node, blocks) for node in self.nodes)\n  File "/home/darshan-ubuntu/Programming/web2py/gluon/template.py", line 77, in output_aux\n    if isinstance(node, BlockNode) \\\n  File "/home/darshan-ubuntu/Programming/web2py/gluon/template.py", line 149, in output\n    return \'\'.join(output_aux(node, blocks) for node in self.nodes)\n  File "/home/darshan-ubuntu/Programming/web2py/gluon/template.py", line 149, in <genexpr>\n    return \'\'.join(output_aux(node, blocks) for node in self.nodes)\n  File "/home/darshan-ubuntu/Programming/web2py/gluon/template.py", line 77, in output_aux\n    if isinstance(node, BlockNode) \\\n  File "/home/darshan-ubuntu/Programming/web2py/gluon/template.py", line 149, in output\n    return \'\'.join(output_aux(node, blocks) for node in self.nodes)\n  File "/home/darshan-ubuntu/Programming/web2py/gluon/template.py", line 149, in <genexpr>\n    return \'\'.join(output_aux(node, blocks) for node in self.nodes)\n  File "/home/darshan-ubuntu/Programming/web2py/gluon/template.py", line 77, in output_aux\n    if isinstance(node, BlockNode) \\\n  File "/home/darshan-ubuntu/Programming/web2py/gluon/template.py", line 149, in output\n    return \'\'.join(output_aux(node, blocks) for node in self.nodes)\n  File "/home/darshan-ubuntu/Programming/web2py/gluon/template.py", line 149, in <genexpr>\n    return \'\'.join(output_aux(node, blocks) for node in self.nodes)\n  File "/home/darshan-ubuntu/Programming/web2py/gluon/template.py", line 77, in output_aux\n    if isinstance(node, BlockNode) \\\n  File "/home/darshan-ubuntu/Programming/web2py/gluon/template.py", line 149, in output\n    return \'\'.join(output_aux(node, blocks) for node in self.nodes)\n  File "/home/darshan-ubuntu/Programming/web2py/gluon/template.py", line 149, in <genexpr>\n    return \'\'.join(output_aux(node, blocks) for node in self.nodes)\n  File "/home/darshan-ubuntu/Programming/web2py/gluon/template.py", line 77, in output_aux\n    if isinstance(node, BlockNode) \\\n  File "/home/darshan-ubuntu/Programming/web2py/gluon/template.py", line 149, in output\n    return \'\'.join(output_aux(node, blocks) for node in self.nodes)\n  File "/home/darshan-ubuntu/Programming/web2py/gluon/template.py", line 149, in <genexpr>\n    return \'\'.join(output_aux(node, blocks) for node in self.nodes)\n  File "/home/darshan-ubuntu/Programming/web2py/gluon/template.py", line 77, in output_aux\n    if isinstance(node, BlockNode) \\\n  File "/home/darshan-ubuntu/Programming/web2py/gluon/template.py", line 149, in output\n    return \'\'.join(output_aux(node, blocks) for node in self.nodes)\n  File "/home/darshan-ubuntu/Programming/web2py/gluon/template.py", line 149, in <genexpr>\n    return \'\'.join(output_aux(node, blocks) for node in self.nodes)\n  File "/home/darshan-ubuntu/Programming/web2py/gluon/template.py", line 77, in output_aux\n    if isinstance(node, BlockNode) \\\n  File "/home/darshan-ubuntu/Programming/web2py/gluon/template.py", line 149, in output\n    return \'\'.join(output_aux(node, blocks) for node in self.nodes)\n  File "/home/darshan-ubuntu/Programming/web2py/gluon/template.py", line 149, in <genexpr>\n    return \'\'.join(output_aux(node, blocks) for node in self.nodes)\n  File "/home/darshan-ubuntu/Programming/web2py/gluon/template.py", line 77, in output_aux\n    if isinstance(node, BlockNode) \\\n  File "/home/darshan-ubuntu/Programming/web2py/gluon/template.py", line 149, in output\n    return \'\'.join(output_aux(node, blocks) for node in self.nodes)\n  File "/home/darshan-ubuntu/Programming/web2py/gluon/template.py", line 149, in <genexpr>\n    return \'\'.join(output_aux(node, blocks) for node in self.nodes)\n  File "/home/darshan-ubuntu/Programming/web2py/gluon/template.py", line 77, in output_aux\n    if isinstance(node, BlockNode) \\\n  File "/home/darshan-ubuntu/Programming/web2py/gluon/template.py", line 149, in output\n    return \'\'.join(output_aux(node, blocks) for node in self.nodes)\n  File "/home/darshan-ubuntu/Programming/web2py/gluon/template.py", line 149, in <genexpr>\n    return \'\'.join(output_aux(node, blocks) for node in self.nodes)\n  File "/home/darshan-ubuntu/Programming/web2py/gluon/template.py", line 77, in output_aux\n    if isinstance(node, BlockNode) \\\n  File "/home/darshan-ubuntu/Programming/web2py/gluon/template.py", line 149, in output\n    return \'\'.join(output_aux(node, blocks) for node in self.nodes)\n  File "/home/darshan-ubuntu/Programming/web2py/gluon/template.py", line 149, in <genexpr>\n    return \'\'.join(output_aux(node, blocks) for node in self.nodes)\n  File "/home/darshan-ubuntu/Programming/web2py/gluon/template.py", line 77, in output_aux\n    if isinstance(node, BlockNode) \\\n  File "/home/darshan-ubuntu/Programming/web2py/gluon/template.py", line 149, in output\n    return \'\'.join(output_aux(node, blocks) for node in self.nodes)\n  File "/home/darshan-ubuntu/Programming/web2py/gluon/template.py", line 149, in <genexpr>\n    return \'\'.join(output_aux(node, blocks) for node in self.nodes)\n  File "/home/darshan-ubuntu/Programming/web2py/gluon/template.py", line 77, in output_aux\n    if isinstance(node, BlockNode) \\\n  File "/home/darshan-ubuntu/Programming/web2py/gluon/template.py", line 149, in output\n    return \'\'.join(output_aux(node, blocks) for node in self.nodes)\n  File "/home/darshan-ubuntu/Programming/web2py/gluon/template.py", line 149, in <genexpr>\n    return \'\'.join(output_aux(node, blocks) for node in self.nodes)\n  File "/home/darshan-ubuntu/Programming/web2py/gluon/template.py", line 77, in output_aux\n    if isinstance(node, BlockNode) \\\n  File "/home/darshan-ubuntu/Programming/web2py/gluon/template.py", line 149, in output\n    return \'\'.join(output_aux(node, blocks) for node in self.nodes)\n  File "/home/darshan-ubuntu/Programming/web2py/gluon/template.py", line 149, in <genexpr>\n    return \'\'.join(output_aux(node, blocks) for node in self.nodes)\n  File "/home/darshan-ubuntu/Programming/web2py/gluon/template.py", line 77, in output_aux\n    if isinstance(node, BlockNode) \\\n  File "/home/darshan-ubuntu/Programming/web2py/gluon/template.py", line 149, in output\n    return \'\'.join(output_aux(node, blocks) for node in self.nodes)\n  File "/home/darshan-ubuntu/Programming/web2py/gluon/template.py", line 149, in <genexpr>\n    return \'\'.join(output_aux(node, blocks) for node in self.nodes)\n  File "/home/darshan-ubuntu/Programming/web2py/gluon/template.py", line 77, in output_aux\n    if isinstance(node, BlockNode) \\\n  File "/home/darshan-ubuntu/Programming/web2py/gluon/template.py", line 149, in output\n    return \'\'.join(output_aux(node, blocks) for node in self.nodes)\n  File "/home/darshan-ubuntu/Programming/web2py/gluon/template.py", line 149, in <genexpr>\n    return \'\'.join(output_aux(node, blocks) for node in self.nodes)\n  File "/home/darshan-ubuntu/Programming/web2py/gluon/template.py", line 77, in output_aux\n    if isinstance(node, BlockNode) \\\n  File "/home/darshan-ubuntu/Programming/web2py/gluon/template.py", line 149, in output\n    return \'\'.join(output_aux(node, blocks) for node in self.nodes)\n  File "/home/darshan-ubuntu/Programming/web2py/gluon/template.py", line 149, in <genexpr>\n    return \'\'.join(output_aux(node, blocks) for node in self.nodes)\n  File "/home/darshan-ubuntu/Programming/web2py/gluon/template.py", line 77, in output_aux\n    if isinstance(node, BlockNode) \\\n  File "/home/darshan-ubuntu/Programming/web2py/gluon/template.py", line 149, in output\n    return \'\'.join(output_aux(node, blocks) for node in self.nodes)\n  File "/home/darshan-ubuntu/Programming/web2py/gluon/template.py", line 149, in <genexpr>\n    return \'\'.join(output_aux(node, blocks) for node in self.nodes)\n  File "/home/darshan-ubuntu/Programming/web2py/gluon/template.py", line 77, in output_aux\n    if isinstance(node, BlockNode) \\\n  File "/home/darshan-ubuntu/Programming/web2py/gluon/template.py", line 149, in output\n    return \'\'.join(output_aux(node, blocks) for node in self.nodes)\n  File "/home/darshan-ubuntu/Programming/web2py/gluon/template.py", line 149, in <genexpr>\n    return \'\'.join(output_aux(node, blocks) for node in self.nodes)\n  File "/home/darshan-ubuntu/Programming/web2py/gluon/template.py", line 77, in output_aux\n    if isinstance(node, BlockNode) \\\n  File "/home/darshan-ubuntu/Programming/web2py/gluon/template.py", line 149, in output\n    return \'\'.join(output_aux(node, blocks) for node in self.nodes)\n  File "/home/darshan-ubuntu/Programming/web2py/gluon/template.py", line 149, in <genexpr>\n    return \'\'.join(output_aux(node, blocks) for node in self.nodes)\n  File "/home/darshan-ubuntu/Programming/web2py/gluon/template.py", line 77, in output_aux\n    if isinstance(node, BlockNode) \\\n  File "/home/darshan-ubuntu/Programming/web2py/gluon/template.py", line 149, in output\n    return \'\'.join(output_aux(node, blocks) for node in self.nodes)\n  File "/home/darshan-ubuntu/Programming/web2py/gluon/template.py", line 149, in <genexpr>\n    return \'\'.join(output_aux(node, blocks) for node in self.nodes)\n  File "/home/darshan-ubuntu/Programming/web2py/gluon/template.py", line 77, in output_aux\n    if isinstance(node, BlockNode) \\\n  File "/home/darshan-ubuntu/Programming/web2py/gluon/template.py", line 149, in output\n    return \'\'.join(output_aux(node, blocks) for node in self.nodes)\n  File "/home/darshan-ubuntu/Programming/web2py/gluon/template.py", line 149, in <genexpr>\n    return \'\'.join(output_aux(node, blocks) for node in self.nodes)\n  File "/home/darshan-ubuntu/Programming/web2py/gluon/template.py", line 77, in output_aux\n    if isinstance(node, BlockNode) \\\n  File "/home/darshan-ubuntu/Programming/web2py/gluon/template.py", line 149, in output\n    return \'\'.join(output_aux(node, blocks) for node in self.nodes)\n  File "/home/darshan-ubuntu/Programming/web2py/gluon/template.py", line 149, in <genexpr>\n    return \'\'.join(output_aux(node, blocks) for node in self.nodes)\n  File "/home/darshan-ubuntu/Programming/web2py/gluon/template.py", line 77, in output_aux\n    if isinstance(node, BlockNode) \\\n  File "/home/darshan-ubuntu/Programming/web2py/gluon/template.py", line 149, in output\n    return \'\'.join(output_aux(node, blocks) for node in self.nodes)\n  File "/home/darshan-ubuntu/Programming/web2py/gluon/template.py", line 149, in <genexpr>\n    return \'\'.join(output_aux(node, blocks) for node in self.nodes)\n  File "/home/darshan-ubuntu/Programming/web2py/gluon/template.py", line 77, in output_aux\n    if isinstance(node, BlockNode) \\\n  File "/home/darshan-ubuntu/Programming/web2py/gluon/template.py", line 149, in output\n    return \'\'.join(output_aux(node, blocks) for node in self.nodes)\n  File "/home/darshan-ubuntu/Programming/web2py/gluon/template.py", line 149, in <genexpr>\n    return \'\'.join(output_aux(node, blocks) for node in self.nodes)\n  File "/home/darshan-ubuntu/Programming/web2py/gluon/template.py", line 77, in output_aux\n    if isinstance(node, BlockNode) \\\n  File "/home/darshan-ubuntu/Programming/web2py/gluon/template.py", line 149, in output\n    return \'\'.join(output_aux(node, blocks) for node in self.nodes)\n  File "/home/darshan-ubuntu/Programming/web2py/gluon/template.py", line 149, in <genexpr>\n    return \'\'.join(output_aux(node, blocks) for node in self.nodes)\n  File "/home/darshan-ubuntu/Programming/web2py/gluon/template.py", line 77, in output_aux\n    if isinstance(node, BlockNode) \\\n  File "/home/darshan-ubuntu/Programming/web2py/gluon/template.py", line 149, in output\n    return \'\'.join(output_aux(node, blocks) for node in self.nodes)\n  File "/home/darshan-ubuntu/Programming/web2py/gluon/template.py", line 149, in <genexpr>\n    return \'\'.join(output_aux(node, blocks) for node in self.nodes)\n  File "/home/darshan-ubuntu/Programming/web2py/gluon/template.py", line 77, in output_aux\n    if isinstance(node, BlockNode) \\\n  File "/home/darshan-ubuntu/Programming/web2py/gluon/template.py", line 149, in output\n    return \'\'.join(output_aux(node, blocks) for node in self.nodes)\n  File "/home/darshan-ubuntu/Programming/web2py/gluon/template.py", line 149, in <genexpr>\n    return \'\'.join(output_aux(node, blocks) for node in self.nodes)\n  File "/home/darshan-ubuntu/Programming/web2py/gluon/template.py", line 77, in output_aux\n    if isinstance(node, BlockNode) \\\n  File "/home/darshan-ubuntu/Programming/web2py/gluon/template.py", line 149, in output\n    return \'\'.join(output_aux(node, blocks) for node in self.nodes)\n  File "/home/darshan-ubuntu/Programming/web2py/gluon/template.py", line 149, in <genexpr>\n    return \'\'.join(output_aux(node, blocks) for node in self.nodes)\n  File "/home/darshan-ubuntu/Programming/web2py/gluon/template.py", line 77, in output_aux\n    if isinstance(node, BlockNode) \\\n  File "/home/darshan-ubuntu/Programming/web2py/gluon/template.py", line 149, in output\n    return \'\'.join(output_aux(node, blocks) for node in self.nodes)\n  File "/home/darshan-ubuntu/Programming/web2py/gluon/template.py", line 149, in <genexpr>\n    return \'\'.join(output_aux(node, blocks) for node in self.nodes)\n  File "/home/darshan-ubuntu/Programming/web2py/gluon/template.py", line 77, in output_aux\n    if isinstance(node, BlockNode) \\\n  File "/home/darshan-ubuntu/Programming/web2py/gluon/template.py", line 149, in output\n    return \'\'.join(output_aux(node, blocks) for node in self.nodes)\n  File "/home/darshan-ubuntu/Programming/web2py/gluon/template.py", line 149, in <genexpr>\n    return \'\'.join(output_aux(node, blocks) for node in self.nodes)\n  File "/home/darshan-ubuntu/Programming/web2py/gluon/template.py", line 77, in output_aux\n    if isinstance(node, BlockNode) \\\n  File "/home/darshan-ubuntu/Programming/web2py/gluon/template.py", line 149, in output\n    return \'\'.join(output_aux(node, blocks) for node in self.nodes)\n  File "/home/darshan-ubuntu/Programming/web2py/gluon/template.py", line 149, in <genexpr>\n    return \'\'.join(output_aux(node, blocks) for node in self.nodes)\n  File "/home/darshan-ubuntu/Programming/web2py/gluon/template.py", line 77, in output_aux\n    if isinstance(node, BlockNode) \\\n  File "/home/darshan-ubuntu/Programming/web2py/gluon/template.py", line 149, in output\n    return \'\'.join(output_aux(node, blocks) for node in self.nodes)\n  File "/home/darshan-ubuntu/Programming/web2py/gluon/template.py", line 149, in <genexpr>\n    return \'\'.join(output_aux(node, blocks) for node in self.nodes)\n  File "/home/darshan-ubuntu/Programming/web2py/gluon/template.py", line 77, in output_aux\n    if isinstance(node, BlockNode) \\\n  File "/home/darshan-ubuntu/Programming/web2py/gluon/template.py", line 149, in output\n    return \'\'.join(output_aux(node, blocks) for node in self.nodes)\n  File "/home/darshan-ubuntu/Programming/web2py/gluon/template.py", line 149, in <genexpr>\n    return \'\'.join(output_aux(node, blocks) for node in self.nodes)\n  File "/home/darshan-ubuntu/Programming/web2py/gluon/template.py", line 77, in output_aux\n    if isinstance(node, BlockNode) \\\n  File "/home/darshan-ubuntu/Programming/web2py/gluon/template.py", line 149, in output\n    return \'\'.join(output_aux(node, blocks) for node in self.nodes)\n  File "/home/darshan-ubuntu/Programming/web2py/gluon/template.py", line 149, in <genexpr>\n    return \'\'.join(output_aux(node, blocks) for node in self.nodes)\n  File "/home/darshan-ubuntu/Programming/web2py/gluon/template.py", line 77, in output_aux\n    if isinstance(node, BlockNode) \\\n  File "/home/darshan-ubuntu/Programming/web2py/gluon/template.py", line 149, in output\n    return \'\'.join(output_aux(node, blocks) for node in self.nodes)\n  File "/home/darshan-ubuntu/Programming/web2py/gluon/template.py", line 149, in <genexpr>\n    return \'\'.join(output_aux(node, blocks) for node in self.nodes)\n  File "/home/darshan-ubuntu/Programming/web2py/gluon/template.py", line 77, in output_aux\n    if isinstance(node, BlockNode) \\\n  File "/home/darshan-ubuntu/Programming/web2py/gluon/template.py", line 149, in output\n    return \'\'.join(output_aux(node, blocks) for node in self.nodes)\n  File "/home/darshan-ubuntu/Programming/web2py/gluon/template.py", line 149, in <genexpr>\n    return \'\'.join(output_aux(node, blocks) for node in self.nodes)\n  File "/home/darshan-ubuntu/Programming/web2py/gluon/template.py", line 77, in output_aux\n    if isinstance(node, BlockNode) \\\n  File "/home/darshan-ubuntu/Programming/web2py/gluon/template.py", line 149, in output\n    return \'\'.join(output_aux(node, blocks) for node in self.nodes)\n  File "/home/darshan-ubuntu/Programming/web2py/gluon/template.py", line 149, in <genexpr>\n    return \'\'.join(output_aux(node, blocks) for node in self.nodes)\n  File "/home/darshan-ubuntu/Programming/web2py/gluon/template.py", line 77, in output_aux\n    if isinstance(node, BlockNode) \\\n  File "/home/darshan-ubuntu/Programming/web2py/gluon/template.py", line 149, in output\n    return \'\'.join(output_aux(node, blocks) for node in self.nodes)\n  File "/home/darshan-ubuntu/Programming/web2py/gluon/template.py", line 149, in <genexpr>\n    return \'\'.join(output_aux(node, blocks) for node in self.nodes)\n  File "/home/darshan-ubuntu/Programming/web2py/gluon/template.py", line 77, in output_aux\n    if isinstance(node, BlockNode) \\\n  File "/home/darshan-ubuntu/Programming/web2py/gluon/template.py", line 149, in output\n    return \'\'.join(output_aux(node, blocks) for node in self.nodes)\n  File "/home/darshan-ubuntu/Programming/web2py/gluon/template.py", line 149, in <genexpr>\n    return \'\'.join(output_aux(node, blocks) for node in self.nodes)\n  File "/home/darshan-ubuntu/Programming/web2py/gluon/template.py", line 77, in output_aux\n    if isinstance(node, BlockNode) \\\n  File "/home/darshan-ubuntu/Programming/web2py/gluon/template.py", line 149, in output\n    return \'\'.join(output_aux(node, blocks) for node in self.nodes)\n  File "/home/darshan-ubuntu/Programming/web2py/gluon/template.py", line 149, in <genexpr>\n    return \'\'.join(output_aux(node, blocks) for node in self.nodes)\n  File "/home/darshan-ubuntu/Programming/web2py/gluon/template.py", line 77, in output_aux\n    if isinstance(node, BlockNode) \\\n  File "/home/darshan-ubuntu/Programming/web2py/gluon/template.py", line 149, in output\n    return \'\'.join(output_aux(node, blocks) for node in self.nodes)\n  File "/home/darshan-ubuntu/Programming/web2py/gluon/template.py", line 149, in <genexpr>\n    return \'\'.join(output_aux(node, blocks) for node in self.nodes)\n  File "/home/darshan-ubuntu/Programming/web2py/gluon/template.py", line 77, in output_aux\n    if isinstance(node, BlockNode) \\\n  File "/home/darshan-ubuntu/Programming/web2py/gluon/template.py", line 149, in output\n    return \'\'.join(output_aux(node, blocks) for node in self.nodes)\n  File "/home/darshan-ubuntu/Programming/web2py/gluon/template.py", line 149, in <genexpr>\n    return \'\'.join(output_aux(node, blocks) for node in self.nodes)\n  File "/home/darshan-ubuntu/Programming/web2py/gluon/template.py", line 77, in output_aux\n    if isinstance(node, BlockNode) \\\n  File "/home/darshan-ubuntu/Programming/web2py/gluon/template.py", line 149, in output\n    return \'\'.join(output_aux(node, blocks) for node in self.nodes)\n  File "/home/darshan-ubuntu/Programming/web2py/gluon/template.py", line 149, in <genexpr>\n    return \'\'.join(output_aux(node, blocks) for node in self.nodes)\n  File "/home/darshan-ubuntu/Programming/web2py/gluon/template.py", line 77, in output_aux\n    if isinstance(node, BlockNode) \\\n  File "/home/darshan-ubuntu/Programming/web2py/gluon/template.py", line 149, in output\n    return \'\'.join(output_aux(node, blocks) for node in self.nodes)\n  File "/home/darshan-ubuntu/Programming/web2py/gluon/template.py", line 149, in <genexpr>\n    return \'\'.join(output_aux(node, blocks) for node in self.nodes)\n  File "/home/darshan-ubuntu/Programming/web2py/gluon/template.py", line 77, in output_aux\n    if isinstance(node, BlockNode) \\\n  File "/home/darshan-ubuntu/Programming/web2py/gluon/template.py", line 149, in output\n    return \'\'.join(output_aux(node, blocks) for node in self.nodes)\n  File "/home/darshan-ubuntu/Programming/web2py/gluon/template.py", line 149, in <genexpr>\n    return \'\'.join(output_aux(node, blocks) for node in self.nodes)\n  File "/home/darshan-ubuntu/Programming/web2py/gluon/template.py", line 77, in output_aux\n    if isinstance(node, BlockNode) \\\n  File "/home/darshan-ubuntu/Programming/web2py/gluon/template.py", line 149, in output\n    return \'\'.join(output_aux(node, blocks) for node in self.nodes)\n  File "/home/darshan-ubuntu/Programming/web2py/gluon/template.py", line 149, in <genexpr>\n    return \'\'.join(output_aux(node, blocks) for node in self.nodes)\n  File "/home/darshan-ubuntu/Programming/web2py/gluon/template.py", line 77, in output_aux\n    if isinstance(node, BlockNode) \\\n  File "/home/darshan-ubuntu/Programming/web2py/gluon/template.py", line 149, in output\n    return \'\'.join(output_aux(node, blocks) for node in self.nodes)\n  File "/home/darshan-ubuntu/Programming/web2py/gluon/template.py", line 149, in <genexpr>\n    return \'\'.join(output_aux(node, blocks) for node in self.nodes)\n  File "/home/darshan-ubuntu/Programming/web2py/gluon/template.py", line 77, in output_aux\n    if isinstance(node, BlockNode) \\\n  File "/home/darshan-ubuntu/Programming/web2py/gluon/template.py", line 149, in output\n    return \'\'.join(output_aux(node, blocks) for node in self.nodes)\n  File "/home/darshan-ubuntu/Programming/web2py/gluon/template.py", line 149, in <genexpr>\n    return \'\'.join(output_aux(node, blocks) for node in self.nodes)\n  File "/home/darshan-ubuntu/Programming/web2py/gluon/template.py", line 77, in output_aux\n    if isinstance(node, BlockNode) \\\n  File "/home/darshan-ubuntu/Programming/web2py/gluon/template.py", line 149, in output\n    return \'\'.join(output_aux(node, blocks) for node in self.nodes)\n  File "/home/darshan-ubuntu/Programming/web2py/gluon/template.py", line 149, in <genexpr>\n    return \'\'.join(output_aux(node, blocks) for node in self.nodes)\n  File "/home/darshan-ubuntu/Programming/web2py/gluon/template.py", line 77, in output_aux\n    if isinstance(node, BlockNode) \\\n  File "/home/darshan-ubuntu/Programming/web2py/gluon/template.py", line 149, in output\n    return \'\'.join(output_aux(node, blocks) for node in self.nodes)\n  File "/home/darshan-ubuntu/Programming/web2py/gluon/template.py", line 149, in <genexpr>\n    return \'\'.join(output_aux(node, blocks) for node in self.nodes)\n  File "/home/darshan-ubuntu/Programming/web2py/gluon/template.py", line 77, in output_aux\n    if isinstance(node, BlockNode) \\\n  File "/home/darshan-ubuntu/Programming/web2py/gluon/template.py", line 149, in output\n    return \'\'.join(output_aux(node, blocks) for node in self.nodes)\n  File "/home/darshan-ubuntu/Programming/web2py/gluon/template.py", line 149, in <genexpr>\n    return \'\'.join(output_aux(node, blocks) for node in self.nodes)\n  File "/home/darshan-ubuntu/Programming/web2py/gluon/template.py", line 77, in output_aux\n    if isinstance(node, BlockNode) \\\n  File "/home/darshan-ubuntu/Programming/web2py/gluon/template.py", line 149, in output\n    return \'\'.join(output_aux(node, blocks) for node in self.nodes)\n  File "/home/darshan-ubuntu/Programming/web2py/gluon/template.py", line 149, in <genexpr>\n    return \'\'.join(output_aux(node, blocks) for node in self.nodes)\n  File "/home/darshan-ubuntu/Programming/web2py/gluon/template.py", line 77, in output_aux\n    if isinstance(node, BlockNode) \\\n  File "/home/darshan-ubuntu/Programming/web2py/gluon/template.py", line 149, in output\n    return \'\'.join(output_aux(node, blocks) for node in self.nodes)\n  File "/home/darshan-ubuntu/Programming/web2py/gluon/template.py", line 149, in <genexpr>\n    return \'\'.join(output_aux(node, blocks) for node in self.nodes)\n  File "/home/darshan-ubuntu/Programming/web2py/gluon/template.py", line 77, in output_aux\n    if isinstance(node, BlockNode) \\\n  File "/home/darshan-ubuntu/Programming/web2py/gluon/template.py", line 149, in output\n    return \'\'.join(output_aux(node, blocks) for node in self.nodes)\n  File "/home/darshan-ubuntu/Programming/web2py/gluon/template.py", line 149, in <genexpr>\n    return \'\'.join(output_aux(node, blocks) for node in self.nodes)\n  File "/home/darshan-ubuntu/Programming/web2py/gluon/template.py", line 77, in output_aux\n    if isinstance(node, BlockNode) \\\n  File "/home/darshan-ubuntu/Programming/web2py/gluon/template.py", line 149, in output\n    return \'\'.join(output_aux(node, blocks) for node in self.nodes)\n  File "/home/darshan-ubuntu/Programming/web2py/gluon/template.py", line 149, in <genexpr>\n    return \'\'.join(output_aux(node, blocks) for node in self.nodes)\n  File "/home/darshan-ubuntu/Programming/web2py/gluon/template.py", line 77, in output_aux\n    if isinstance(node, BlockNode) \\\n  File "/home/darshan-ubuntu/Programming/web2py/gluon/template.py", line 149, in output\n    return \'\'.join(output_aux(node, blocks) for node in self.nodes)\n  File "/home/darshan-ubuntu/Programming/web2py/gluon/template.py", line 149, in <genexpr>\n    return \'\'.join(output_aux(node, blocks) for node in self.nodes)\n  File "/home/darshan-ubuntu/Programming/web2py/gluon/template.py", line 77, in output_aux\n    if isinstance(node, BlockNode) \\\n  File "/home/darshan-ubuntu/Programming/web2py/gluon/template.py", line 149, in output\n    return \'\'.join(output_aux(node, blocks) for node in self.nodes)\n  File "/home/darshan-ubuntu/Programming/web2py/gluon/template.py", line 149, in <genexpr>\n    return \'\'.join(output_aux(node, blocks) for node in self.nodes)\n  File "/home/darshan-ubuntu/Programming/web2py/gluon/template.py", line 77, in output_aux\n    if isinstance(node, BlockNode) \\\n  File "/home/darshan-ubuntu/Programming/web2py/gluon/template.py", line 149, in output\n    return \'\'.join(output_aux(node, blocks) for node in self.nodes)\n  File "/home/darshan-ubuntu/Programming/web2py/gluon/template.py", line 149, in <genexpr>\n    return \'\'.join(output_aux(node, blocks) for node in self.nodes)\n  File "/home/darshan-ubuntu/Programming/web2py/gluon/template.py", line 77, in output_aux\n    if isinstance(node, BlockNode) \\\n  File "/home/darshan-ubuntu/Programming/web2py/gluon/template.py", line 149, in output\n    return \'\'.join(output_aux(node, blocks) for node in self.nodes)\n  File "/home/darshan-ubuntu/Programming/web2py/gluon/template.py", line 149, in <genexpr>\n    return \'\'.join(output_aux(node, blocks) for node in self.nodes)\n  File "/home/darshan-ubuntu/Programming/web2py/gluon/template.py", line 77, in output_aux\n    if isinstance(node, BlockNode) \\\n  File "/home/darshan-ubuntu/Programming/web2py/gluon/template.py", line 149, in output\n    return \'\'.join(output_aux(node, blocks) for node in self.nodes)\n  File "/home/darshan-ubuntu/Programming/web2py/gluon/template.py", line 149, in <genexpr>\n    return \'\'.join(output_aux(node, blocks) for node in self.nodes)\n  File "/home/darshan-ubuntu/Programming/web2py/gluon/template.py", line 77, in output_aux\n    if isinstance(node, BlockNode) \\\n  File "/home/darshan-ubuntu/Programming/web2py/gluon/template.py", line 149, in output\n    return \'\'.join(output_aux(node, blocks) for node in self.nodes)\n  File "/home/darshan-ubuntu/Programming/web2py/gluon/template.py", line 149, in <genexpr>\n    return \'\'.join(output_aux(node, blocks) for node in self.nodes)\n  File "/home/darshan-ubuntu/Programming/web2py/gluon/template.py", line 77, in output_aux\n    if isinstance(node, BlockNode) \\\n  File "/home/darshan-ubuntu/Programming/web2py/gluon/template.py", line 149, in output\n    return \'\'.join(output_aux(node, blocks) for node in self.nodes)\n  File "/home/darshan-ubuntu/Programming/web2py/gluon/template.py", line 149, in <genexpr>\n    return \'\'.join(output_aux(node, blocks) for node in self.nodes)\n  File "/home/darshan-ubuntu/Programming/web2py/gluon/template.py", line 77, in output_aux\n    if isinstance(node, BlockNode) \\\n  File "/home/darshan-ubuntu/Programming/web2py/gluon/template.py", line 149, in output\n    return \'\'.join(output_aux(node, blocks) for node in self.nodes)\n  File "/home/darshan-ubuntu/Programming/web2py/gluon/template.py", line 149, in <genexpr>\n    return \'\'.join(output_aux(node, blocks) for node in self.nodes)\n  File "/home/darshan-ubuntu/Programming/web2py/gluon/template.py", line 77, in output_aux\n    if isinstance(node, BlockNode) \\\n  File "/home/darshan-ubuntu/Programming/web2py/gluon/template.py", line 149, in output\n    return \'\'.join(output_aux(node, blocks) for node in self.nodes)\n  File "/home/darshan-ubuntu/Programming/web2py/gluon/template.py", line 149, in <genexpr>\n    return \'\'.join(output_aux(node, blocks) for node in self.nodes)\n  File "/home/darshan-ubuntu/Programming/web2py/gluon/template.py", line 77, in output_aux\n    if isinstance(node, BlockNode) \\\n  File "/home/darshan-ubuntu/Programming/web2py/gluon/template.py", line 149, in output\n    return \'\'.join(output_aux(node, blocks) for node in self.nodes)\n  File "/home/darshan-ubuntu/Programming/web2py/gluon/template.py", line 149, in <genexpr>\n    return \'\'.join(output_aux(node, blocks) for node in self.nodes)\n  File "/home/darshan-ubuntu/Programming/web2py/gluon/template.py", line 77, in output_aux\n    if isinstance(node, BlockNode) \\\n  File "/home/darshan-ubuntu/Programming/web2py/gluon/template.py", line 149, in output\n    return \'\'.join(output_aux(node, blocks) for node in self.nodes)\n  File "/home/darshan-ubuntu/Programming/web2py/gluon/template.py", line 149, in <genexpr>\n    return \'\'.join(output_aux(node, blocks) for node in self.nodes)\n  File "/home/darshan-ubuntu/Programming/web2py/gluon/template.py", line 77, in output_aux\n    if isinstance(node, BlockNode) \\\n  File "/home/darshan-ubuntu/Programming/web2py/gluon/template.py", line 149, in output\n    return \'\'.join(output_aux(node, blocks) for node in self.nodes)\n  File "/home/darshan-ubuntu/Programming/web2py/gluon/template.py", line 149, in <genexpr>\n    return \'\'.join(output_aux(node, blocks) for node in self.nodes)\n  File "/home/darshan-ubuntu/Programming/web2py/gluon/template.py", line 77, in output_aux\n    if isinstance(node, BlockNode) \\\n  File "/home/darshan-ubuntu/Programming/web2py/gluon/template.py", line 149, in output\n    return \'\'.join(output_aux(node, blocks) for node in self.nodes)\n  File "/home/darshan-ubuntu/Programming/web2py/gluon/template.py", line 149, in <genexpr>\n    return \'\'.join(output_aux(node, blocks) for node in self.nodes)\n  File "/home/darshan-ubuntu/Programming/web2py/gluon/template.py", line 77, in output_aux\n    if isinstance(node, BlockNode) \\\n  File "/home/darshan-ubuntu/Programming/web2py/gluon/template.py", line 149, in output\n    return \'\'.join(output_aux(node, blocks) for node in self.nodes)\n  File "/home/darshan-ubuntu/Programming/web2py/gluon/template.py", line 149, in <genexpr>\n    return \'\'.join(output_aux(node, blocks) for node in self.nodes)\n  File "/home/darshan-ubuntu/Programming/web2py/gluon/template.py", line 77, in output_aux\n    if isinstance(node, BlockNode) \\\n  File "/home/darshan-ubuntu/Programming/web2py/gluon/template.py", line 149, in output\n    return \'\'.join(output_aux(node, blocks) for node in self.nodes)\n  File "/home/darshan-ubuntu/Programming/web2py/gluon/template.py", line 149, in <genexpr>\n    return \'\'.join(output_aux(node, blocks) for node in self.nodes)\n  File "/home/darshan-ubuntu/Programming/web2py/gluon/template.py", line 77, in output_aux\n    if isinstance(node, BlockNode) \\\n  File "/home/darshan-ubuntu/Programming/web2py/gluon/template.py", line 149, in output\n    return \'\'.join(output_aux(node, blocks) for node in self.nodes)\n  File "/home/darshan-ubuntu/Programming/web2py/gluon/template.py", line 149, in <genexpr>\n    return \'\'.join(output_aux(node, blocks) for node in self.nodes)\n  File "/home/darshan-ubuntu/Programming/web2py/gluon/template.py", line 77, in output_aux\n    if isinstance(node, BlockNode) \\\n  File "/home/darshan-ubuntu/Programming/web2py/gluon/template.py", line 149, in output\n    return \'\'.join(output_aux(node, blocks) for node in self.nodes)\n  File "/home/darshan-ubuntu/Programming/web2py/gluon/template.py", line 149, in <genexpr>\n    return \'\'.join(output_aux(node, blocks) for node in self.nodes)\n  File "/home/darshan-ubuntu/Programming/web2py/gluon/template.py", line 77, in output_aux\n    if isinstance(node, BlockNode) \\\n  File "/home/darshan-ubuntu/Programming/web2py/gluon/template.py", line 149, in output\n    return \'\'.join(output_aux(node, blocks) for node in self.nodes)\n  File "/home/darshan-ubuntu/Programming/web2py/gluon/template.py", line 149, in <genexpr>\n    return \'\'.join(output_aux(node, blocks) for node in self.nodes)\n  File "/home/darshan-ubuntu/Programming/web2py/gluon/template.py", line 77, in output_aux\n    if isinstance(node, BlockNode) \\\n  File "/home/darshan-ubuntu/Programming/web2py/gluon/template.py", line 149, in output\n    return \'\'.join(output_aux(node, blocks) for node in self.nodes)\n  File "/home/darshan-ubuntu/Programming/web2py/gluon/template.py", line 149, in <genexpr>\n    return \'\'.join(output_aux(node, blocks) for node in self.nodes)\n  File "/home/darshan-ubuntu/Programming/web2py/gluon/template.py", line 77, in output_aux\n    if isinstance(node, BlockNode) \\\n  File "/home/darshan-ubuntu/Programming/web2py/gluon/template.py", line 149, in output\n    return \'\'.join(output_aux(node, blocks) for node in self.nodes)\n  File "/home/darshan-ubuntu/Programming/web2py/gluon/template.py", line 149, in <genexpr>\n    return \'\'.join(output_aux(node, blocks) for node in self.nodes)\n  File "/home/darshan-ubuntu/Programming/web2py/gluon/template.py", line 77, in output_aux\n    if isinstance(node, BlockNode) \\\n  File "/home/darshan-ubuntu/Programming/web2py/gluon/template.py", line 149, in output\n    return \'\'.join(output_aux(node, blocks) for node in self.nodes)\n  File "/home/darshan-ubuntu/Programming/web2py/gluon/template.py", line 149, in <genexpr>\n    return \'\'.join(output_aux(node, blocks) for node in self.nodes)\n  File "/home/darshan-ubuntu/Programming/web2py/gluon/template.py", line 77, in output_aux\n    if isinstance(node, BlockNode) \\\n  File "/home/darshan-ubuntu/Programming/web2py/gluon/template.py", line 149, in output\n    return \'\'.join(output_aux(node, blocks) for node in self.nodes)\n  File "/home/darshan-ubuntu/Programming/web2py/gluon/template.py", line 149, in <genexpr>\n    return \'\'.join(output_aux(node, blocks) for node in self.nodes)\n  File "/home/darshan-ubuntu/Programming/web2py/gluon/template.py", line 77, in output_aux\n    if isinstance(node, BlockNode) \\\n  File "/home/darshan-ubuntu/Programming/web2py/gluon/template.py", line 149, in output\n    return \'\'.join(output_aux(node, blocks) for node in self.nodes)\n  File "/home/darshan-ubuntu/Programming/web2py/gluon/template.py", line 149, in <genexpr>\n    return \'\'.join(output_aux(node, blocks) for node in self.nodes)\n  File "/home/darshan-ubuntu/Programming/web2py/gluon/template.py", line 77, in output_aux\n    if isinstance(node, BlockNode) \\\n  File "/home/darshan-ubuntu/Programming/web2py/gluon/template.py", line 149, in output\n    return \'\'.join(output_aux(node, blocks) for node in self.nodes)\n  File "/home/darshan-ubuntu/Programming/web2py/gluon/template.py", line 149, in <genexpr>\n    return \'\'.join(output_aux(node, blocks) for node in self.nodes)\n  File "/home/darshan-ubuntu/Programming/web2py/gluon/template.py", line 77, in output_aux\n    if isinstance(node, BlockNode) \\\n  File "/home/darshan-ubuntu/Programming/web2py/gluon/template.py", line 149, in output\n    return \'\'.join(output_aux(node, blocks) for node in self.nodes)\n  File "/home/darshan-ubuntu/Programming/web2py/gluon/template.py", line 149, in <genexpr>\n    return \'\'.join(output_aux(node, blocks) for node in self.nodes)\n  File "/home/darshan-ubuntu/Programming/web2py/gluon/template.py", line 77, in output_aux\n    if isinstance(node, BlockNode) \\\n  File "/home/darshan-ubuntu/Programming/web2py/gluon/template.py", line 149, in output\n    return \'\'.join(output_aux(node, blocks) for node in self.nodes)\n  File "/home/darshan-ubuntu/Programming/web2py/gluon/template.py", line 149, in <genexpr>\n    return \'\'.join(output_aux(node, blocks) for node in self.nodes)\n  File "/home/darshan-ubuntu/Programming/web2py/gluon/template.py", line 77, in output_aux\n    if isinstance(node, BlockNode) \\\n  File "/home/darshan-ubuntu/Programming/web2py/gluon/template.py", line 149, in output\n    return \'\'.join(output_aux(node, blocks) for node in self.nodes)\n  File "/home/darshan-ubuntu/Programming/web2py/gluon/template.py", line 149, in <genexpr>\n    return \'\'.join(output_aux(node, blocks) for node in self.nodes)\n  File "/home/darshan-ubuntu/Programming/web2py/gluon/template.py", line 77, in output_aux\n    if isinstance(node, BlockNode) \\\n  File "/home/darshan-ubuntu/Programming/web2py/gluon/template.py", line 149, in output\n    return \'\'.join(output_aux(node, blocks) for node in self.nodes)\n  File "/home/darshan-ubuntu/Programming/web2py/gluon/template.py", line 149, in <genexpr>\n    return \'\'.join(output_aux(node, blocks) for node in self.nodes)\n  File "/home/darshan-ubuntu/Programming/web2py/gluon/template.py", line 77, in output_aux\n    if isinstance(node, BlockNode) \\\n  File "/home/darshan-ubuntu/Programming/web2py/gluon/template.py", line 149, in output\n    return \'\'.join(output_aux(node, blocks) for node in self.nodes)\n  File "/home/darshan-ubuntu/Programming/web2py/gluon/template.py", line 149, in <genexpr>\n    return \'\'.join(output_aux(node, blocks) for node in self.nodes)\n  File "/home/darshan-ubuntu/Programming/web2py/gluon/template.py", line 77, in output_aux\n    if isinstance(node, BlockNode) \\\n  File "/home/darshan-ubuntu/Programming/web2py/gluon/template.py", line 149, in output\n    return \'\'.join(output_aux(node, blocks) for node in self.nodes)\n  File "/home/darshan-ubuntu/Programming/web2py/gluon/template.py", line 149, in <genexpr>\n    return \'\'.join(output_aux(node, blocks) for node in self.nodes)\n  File "/home/darshan-ubuntu/Programming/web2py/gluon/template.py", line 77, in output_aux\n    if isinstance(node, BlockNode) \\\n  File "/home/darshan-ubuntu/Programming/web2py/gluon/template.py", line 149, in output\n    return \'\'.join(output_aux(node, blocks) for node in self.nodes)\n  File "/home/darshan-ubuntu/Programming/web2py/gluon/template.py", line 149, in <genexpr>\n    return \'\'.join(output_aux(node, blocks) for node in self.nodes)\n  File "/home/darshan-ubuntu/Programming/web2py/gluon/template.py", line 77, in output_aux\n    if isinstance(node, BlockNode) \\\n  File "/home/darshan-ubuntu/Programming/web2py/gluon/template.py", line 149, in output\n    return \'\'.join(output_aux(node, blocks) for node in self.nodes)\n  File "/home/darshan-ubuntu/Programming/web2py/gluon/template.py", line 149, in <genexpr>\n    return \'\'.join(output_aux(node, blocks) for node in self.nodes)\n  File "/home/darshan-ubuntu/Programming/web2py/gluon/template.py", line 77, in output_aux\n    if isinstance(node, BlockNode) \\\n  File "/home/darshan-ubuntu/Programming/web2py/gluon/template.py", line 149, in output\n    return \'\'.join(output_aux(node, blocks) for node in self.nodes)\n  File "/home/darshan-ubuntu/Programming/web2py/gluon/template.py", line 149, in <genexpr>\n    return \'\'.join(output_aux(node, blocks) for node in self.nodes)\n  File "/home/darshan-ubuntu/Programming/web2py/gluon/template.py", line 77, in output_aux\n    if isinstance(node, BlockNode) \\\n  File "/home/darshan-ubuntu/Programming/web2py/gluon/template.py", line 149, in output\n    return \'\'.join(output_aux(node, blocks) for node in self.nodes)\n  File "/home/darshan-ubuntu/Programming/web2py/gluon/template.py", line 149, in <genexpr>\n    return \'\'.join(output_aux(node, blocks) for node in self.nodes)\n  File "/home/darshan-ubuntu/Programming/web2py/gluon/template.py", line 77, in output_aux\n    if isinstance(node, BlockNode) \\\n  File "/home/darshan-ubuntu/Programming/web2py/gluon/template.py", line 149, in output\n    return \'\'.join(output_aux(node, blocks) for node in self.nodes)\n  File "/home/darshan-ubuntu/Programming/web2py/gluon/template.py", line 149, in <genexpr>\n    return \'\'.join(output_aux(node, blocks) for node in self.nodes)\n  File "/home/darshan-ubuntu/Programming/web2py/gluon/template.py", line 77, in output_aux\n    if isinstance(node, BlockNode) \\\n  File "/home/darshan-ubuntu/Programming/web2py/gluon/template.py", line 149, in output\n    return \'\'.join(output_aux(node, blocks) for node in self.nodes)\n  File "/home/darshan-ubuntu/Programming/web2py/gluon/template.py", line 149, in <genexpr>\n    return \'\'.join(output_aux(node, blocks) for node in self.nodes)\n  File "/home/darshan-ubuntu/Programming/web2py/gluon/template.py", line 77, in output_aux\n    if isinstance(node, BlockNode) \\\n  File "/home/darshan-ubuntu/Programming/web2py/gluon/template.py", line 149, in output\n    return \'\'.join(output_aux(node, blocks) for node in self.nodes)\n  File "/home/darshan-ubuntu/Programming/web2py/gluon/template.py", line 149, in <genexpr>\n    return \'\'.join(output_aux(node, blocks) for node in self.nodes)\n  File "/home/darshan-ubuntu/Programming/web2py/gluon/template.py", line 77, in output_aux\n    if isinstance(node, BlockNode) \\\n  File "/home/darshan-ubuntu/Programming/web2py/gluon/template.py", line 149, in output\n    return \'\'.join(output_aux(node, blocks) for node in self.nodes)\n  File "/home/darshan-ubuntu/Programming/web2py/gluon/template.py", line 149, in <genexpr>\n    return \'\'.join(output_aux(node, blocks) for node in self.nodes)\n  File "/home/darshan-ubuntu/Programming/web2py/gluon/template.py", line 77, in output_aux\n    if isinstance(node, BlockNode) \\\n  File "/home/darshan-ubuntu/Programming/web2py/gluon/template.py", line 149, in output\n    return \'\'.join(output_aux(node, blocks) for node in self.nodes)\n  File "/home/darshan-ubuntu/Programming/web2py/gluon/template.py", line 149, in <genexpr>\n    return \'\'.join(output_aux(node, blocks) for node in self.nodes)\n  File "/home/darshan-ubuntu/Programming/web2py/gluon/template.py", line 77, in output_aux\n    if isinstance(node, BlockNode) \\\n  File "/home/darshan-ubuntu/Programming/web2py/gluon/template.py", line 149, in output\n    return \'\'.join(output_aux(node, blocks) for node in self.nodes)\n  File "/home/darshan-ubuntu/Programming/web2py/gluon/template.py", line 149, in <genexpr>\n    return \'\'.join(output_aux(node, blocks) for node in self.nodes)\n  File "/home/darshan-ubuntu/Programming/web2py/gluon/template.py", line 77, in output_aux\n    if isinstance(node, BlockNode) \\\n  File "/home/darshan-ubuntu/Programming/web2py/gluon/template.py", line 149, in output\n    return \'\'.join(output_aux(node, blocks) for node in self.nodes)\n  File "/home/darshan-ubuntu/Programming/web2py/gluon/template.py", line 149, in <genexpr>\n    return \'\'.join(output_aux(node, blocks) for node in self.nodes)\n  File "/home/darshan-ubuntu/Programming/web2py/gluon/template.py", line 77, in output_aux\n    if isinstance(node, BlockNode) \\\n  File "/home/darshan-ubuntu/Programming/web2py/gluon/template.py", line 149, in output\n    return \'\'.join(output_aux(node, blocks) for node in self.nodes)\n  File "/home/darshan-ubuntu/Programming/web2py/gluon/template.py", line 149, in <genexpr>\n    return \'\'.join(output_aux(node, blocks) for node in self.nodes)\n  File "/home/darshan-ubuntu/Programming/web2py/gluon/template.py", line 77, in output_aux\n    if isinstance(node, BlockNode) \\\n  File "/home/darshan-ubuntu/Programming/web2py/gluon/template.py", line 149, in output\n    return \'\'.join(output_aux(node, blocks) for node in self.nodes)\n  File "/home/darshan-ubuntu/Programming/web2py/gluon/template.py", line 149, in <genexpr>\n    return \'\'.join(output_aux(node, blocks) for node in self.nodes)\n  File "/home/darshan-ubuntu/Programming/web2py/gluon/template.py", line 77, in output_aux\n    if isinstance(node, BlockNode) \\\n  File "/home/darshan-ubuntu/Programming/web2py/gluon/template.py", line 149, in output\n    return \'\'.join(output_aux(node, blocks) for node in self.nodes)\n  File "/home/darshan-ubuntu/Programming/web2py/gluon/template.py", line 149, in <genexpr>\n    return \'\'.join(output_aux(node, blocks) for node in self.nodes)\n  File "/home/darshan-ubuntu/Programming/web2py/gluon/template.py", line 77, in output_aux\n    if isinstance(node, BlockNode) \\\n  File "/home/darshan-ubuntu/Programming/web2py/gluon/template.py", line 149, in output\n    return \'\'.join(output_aux(node, blocks) for node in self.nodes)\n  File "/home/darshan-ubuntu/Programming/web2py/gluon/template.py", line 149, in <genexpr>\n    return \'\'.join(output_aux(node, blocks) for node in self.nodes)\n  File "/home/darshan-ubuntu/Programming/web2py/gluon/template.py", line 77, in output_aux\n    if isinstance(node, BlockNode) \\\n  File "/home/darshan-ubuntu/Programming/web2py/gluon/template.py", line 149, in output\n    return \'\'.join(output_aux(node, blocks) for node in self.nodes)\n  File "/home/darshan-ubuntu/Programming/web2py/gluon/template.py", line 149, in <genexpr>\n    return \'\'.join(output_aux(node, blocks) for node in self.nodes)\n  File "/home/darshan-ubuntu/Programming/web2py/gluon/template.py", line 77, in output_aux\n    if isinstance(node, BlockNode) \\\n  File "/home/darshan-ubuntu/Programming/web2py/gluon/template.py", line 149, in output\n    return \'\'.join(output_aux(node, blocks) for node in self.nodes)\n  File "/home/darshan-ubuntu/Programming/web2py/gluon/template.py", line 149, in <genexpr>\n    return \'\'.join(output_aux(node, blocks) for node in self.nodes)\n  File "/home/darshan-ubuntu/Programming/web2py/gluon/template.py", line 77, in output_aux\n    if isinstance(node, BlockNode) \\\n  File "/home/darshan-ubuntu/Programming/web2py/gluon/template.py", line 149, in output\n    return \'\'.join(output_aux(node, blocks) for node in self.nodes)\n  File "/home/darshan-ubuntu/Programming/web2py/gluon/template.py", line 149, in <genexpr>\n    return \'\'.join(output_aux(node, blocks) for node in self.nodes)\n  File "/home/darshan-ubuntu/Programming/web2py/gluon/template.py", line 77, in output_aux\n    if isinstance(node, BlockNode) \\\n  File "/home/darshan-ubuntu/Programming/web2py/gluon/template.py", line 149, in output\n    return \'\'.join(output_aux(node, blocks) for node in self.nodes)\n  File "/home/darshan-ubuntu/Programming/web2py/gluon/template.py", line 149, in <genexpr>\n    return \'\'.join(output_aux(node, blocks) for node in self.nodes)\n  File "/home/darshan-ubuntu/Programming/web2py/gluon/template.py", line 77, in output_aux\n    if isinstance(node, BlockNode) \\\n  File "/home/darshan-ubuntu/Programming/web2py/gluon/template.py", line 149, in output\n    return \'\'.join(output_aux(node, blocks) for node in self.nodes)\n  File "/home/darshan-ubuntu/Programming/web2py/gluon/template.py", line 149, in <genexpr>\n    return \'\'.join(output_aux(node, blocks) for node in self.nodes)\n  File "/home/darshan-ubuntu/Programming/web2py/gluon/template.py", line 77, in output_aux\n    if isinstance(node, BlockNode) \\\n  File "/home/darshan-ubuntu/Programming/web2py/gluon/template.py", line 149, in output\n    return \'\'.join(output_aux(node, blocks) for node in self.nodes)\n  File "/home/darshan-ubuntu/Programming/web2py/gluon/template.py", line 149, in <genexpr>\n    return \'\'.join(output_aux(node, blocks) for node in self.nodes)\n  File "/home/darshan-ubuntu/Programming/web2py/gluon/template.py", line 77, in output_aux\n    if isinstance(node, BlockNode) \\\n  File "/home/darshan-ubuntu/Programming/web2py/gluon/template.py", line 149, in output\n    return \'\'.join(output_aux(node, blocks) for node in self.nodes)\n  File "/home/darshan-ubuntu/Programming/web2py/gluon/template.py", line 149, in <genexpr>\n    return \'\'.join(output_aux(node, blocks) for node in self.nodes)\n  File "/home/darshan-ubuntu/Programming/web2py/gluon/template.py", line 77, in output_aux\n    if isinstance(node, BlockNode) \\\n  File "/home/darshan-ubuntu/Programming/web2py/gluon/template.py", line 149, in output\n    return \'\'.join(output_aux(node, blocks) for node in self.nodes)\n  File "/home/darshan-ubuntu/Programming/web2py/gluon/template.py", line 149, in <genexpr>\n    return \'\'.join(output_aux(node, blocks) for node in self.nodes)\n  File "/home/darshan-ubuntu/Programming/web2py/gluon/template.py", line 77, in output_aux\n    if isinstance(node, BlockNode) \\\n  File "/home/darshan-ubuntu/Programming/web2py/gluon/template.py", line 149, in output\n    return \'\'.join(output_aux(node, blocks) for node in self.nodes)\n  File "/home/darshan-ubuntu/Programming/web2py/gluon/template.py", line 149, in <genexpr>\n    return \'\'.join(output_aux(node, blocks) for node in self.nodes)\n  File "/home/darshan-ubuntu/Programming/web2py/gluon/template.py", line 77, in output_aux\n    if isinstance(node, BlockNode) \\\n  File "/home/darshan-ubuntu/Programming/web2py/gluon/template.py", line 149, in output\n    return \'\'.join(output_aux(node, blocks) for node in self.nodes)\n  File "/home/darshan-ubuntu/Programming/web2py/gluon/template.py", line 149, in <genexpr>\n    return \'\'.join(output_aux(node, blocks) for node in self.nodes)\n  File "/home/darshan-ubuntu/Programming/web2py/gluon/template.py", line 77, in output_aux\n    if isinstance(node, BlockNode) \\\n  File "/home/darshan-ubuntu/Programming/web2py/gluon/template.py", line 149, in output\n    return \'\'.join(output_aux(node, blocks) for node in self.nodes)\n  File "/home/darshan-ubuntu/Programming/web2py/gluon/template.py", line 149, in <genexpr>\n    return \'\'.join(output_aux(node, blocks) for node in self.nodes)\n  File "/home/darshan-ubuntu/Programming/web2py/gluon/template.py", line 77, in output_aux\n    if isinstance(node, BlockNode) \\\n  File "/home/darshan-ubuntu/Programming/web2py/gluon/template.py", line 149, in output\n    return \'\'.join(output_aux(node, blocks) for node in self.nodes)\n  File "/home/darshan-ubuntu/Programming/web2py/gluon/template.py", line 149, in <genexpr>\n    return \'\'.join(output_aux(node, blocks) for node in self.nodes)\n  File "/home/darshan-ubuntu/Programming/web2py/gluon/template.py", line 77, in output_aux\n    if isinstance(node, BlockNode) \\\n  File "/home/darshan-ubuntu/Programming/web2py/gluon/template.py", line 149, in output\n    return \'\'.join(output_aux(node, blocks) for node in self.nodes)\n  File "/home/darshan-ubuntu/Programming/web2py/gluon/template.py", line 149, in <genexpr>\n    return \'\'.join(output_aux(node, blocks) for node in self.nodes)\n  File "/home/darshan-ubuntu/Programming/web2py/gluon/template.py", line 77, in output_aux\n    if isinstance(node, BlockNode) \\\n  File "/home/darshan-ubuntu/Programming/web2py/gluon/template.py", line 149, in output\n    return \'\'.join(output_aux(node, blocks) for node in self.nodes)\n  File "/home/darshan-ubuntu/Programming/web2py/gluon/template.py", line 149, in <genexpr>\n    return \'\'.join(output_aux(node, blocks) for node in self.nodes)\n  File "/home/darshan-ubuntu/Programming/web2py/gluon/template.py", line 77, in output_aux\n    if isinstance(node, BlockNode) \\\n  File "/home/darshan-ubuntu/Programming/web2py/gluon/template.py", line 149, in output\n    return \'\'.join(output_aux(node, blocks) for node in self.nodes)\n  File "/home/darshan-ubuntu/Programming/web2py/gluon/template.py", line 149, in <genexpr>\n    return \'\'.join(output_aux(node, blocks) for node in self.nodes)\n  File "/home/darshan-ubuntu/Programming/web2py/gluon/template.py", line 77, in output_aux\n    if isinstance(node, BlockNode) \\\n  File "/home/darshan-ubuntu/Programming/web2py/gluon/template.py", line 149, in output\n    return \'\'.join(output_aux(node, blocks) for node in self.nodes)\n  File "/home/darshan-ubuntu/Programming/web2py/gluon/template.py", line 149, in <genexpr>\n    return \'\'.join(output_aux(node, blocks) for node in self.nodes)\n  File "/home/darshan-ubuntu/Programming/web2py/gluon/template.py", line 77, in output_aux\n    if isinstance(node, BlockNode) \\\n  File "/home/darshan-ubuntu/Programming/web2py/gluon/template.py", line 149, in output\n    return \'\'.join(output_aux(node, blocks) for node in self.nodes)\n  File "/home/darshan-ubuntu/Programming/web2py/gluon/template.py", line 149, in <genexpr>\n    return \'\'.join(output_aux(node, blocks) for node in self.nodes)\n  File "/home/darshan-ubuntu/Programming/web2py/gluon/template.py", line 77, in output_aux\n    if isinstance(node, BlockNode) \\\n  File "/home/darshan-ubuntu/Programming/web2py/gluon/template.py", line 149, in output\n    return \'\'.join(output_aux(node, blocks) for node in self.nodes)\n  File "/home/darshan-ubuntu/Programming/web2py/gluon/template.py", line 149, in <genexpr>\n    return \'\'.join(output_aux(node, blocks) for node in self.nodes)\n  File "/home/darshan-ubuntu/Programming/web2py/gluon/template.py", line 77, in output_aux\n    if isinstance(node, BlockNode) \\\n  File "/home/darshan-ubuntu/Programming/web2py/gluon/template.py", line 149, in output\n    return \'\'.join(output_aux(node, blocks) for node in self.nodes)\n  File "/home/darshan-ubuntu/Programming/web2py/gluon/template.py", line 149, in <genexpr>\n    return \'\'.join(output_aux(node, blocks) for node in self.nodes)\n  File "/home/darshan-ubuntu/Programming/web2py/gluon/template.py", line 77, in output_aux\n    if isinstance(node, BlockNode) \\\n  File "/home/darshan-ubuntu/Programming/web2py/gluon/template.py", line 149, in output\n    return \'\'.join(output_aux(node, blocks) for node in self.nodes)\n  File "/home/darshan-ubuntu/Programming/web2py/gluon/template.py", line 149, in <genexpr>\n    return \'\'.join(output_aux(node, blocks) for node in self.nodes)\n  File "/home/darshan-ubuntu/Programming/web2py/gluon/template.py", line 77, in output_aux\n    if isinstance(node, BlockNode) \\\n  File "/home/darshan-ubuntu/Programming/web2py/gluon/template.py", line 149, in output\n    return \'\'.join(output_aux(node, blocks) for node in self.nodes)\n  File "/home/darshan-ubuntu/Programming/web2py/gluon/template.py", line 149, in <genexpr>\n    return \'\'.join(output_aux(node, blocks) for node in self.nodes)\n  File "/home/darshan-ubuntu/Programming/web2py/gluon/template.py", line 77, in output_aux\n    if isinstance(node, BlockNode) \\\n  File "/home/darshan-ubuntu/Programming/web2py/gluon/template.py", line 149, in output\n    return \'\'.join(output_aux(node, blocks) for node in self.nodes)\n  File "/home/darshan-ubuntu/Programming/web2py/gluon/template.py", line 149, in <genexpr>\n    return \'\'.join(output_aux(node, blocks) for node in self.nodes)\n  File "/home/darshan-ubuntu/Programming/web2py/gluon/template.py", line 77, in output_aux\n    if isinstance(node, BlockNode) \\\n  File "/home/darshan-ubuntu/Programming/web2py/gluon/template.py", line 149, in output\n    return \'\'.join(output_aux(node, blocks) for node in self.nodes)\n  File "/home/darshan-ubuntu/Programming/web2py/gluon/template.py", line 149, in <genexpr>\n    return \'\'.join(output_aux(node, blocks) for node in self.nodes)\n  File "/home/darshan-ubuntu/Programming/web2py/gluon/template.py", line 77, in output_aux\n    if isinstance(node, BlockNode) \\\n  File "/home/darshan-ubuntu/Programming/web2py/gluon/template.py", line 149, in output\n    return \'\'.join(output_aux(node, blocks) for node in self.nodes)\n  File "/home/darshan-ubuntu/Programming/web2py/gluon/template.py", line 149, in <genexpr>\n    return \'\'.join(output_aux(node, blocks) for node in self.nodes)\n  File "/home/darshan-ubuntu/Programming/web2py/gluon/template.py", line 77, in output_aux\n    if isinstance(node, BlockNode) \\\n  File "/home/darshan-ubuntu/Programming/web2py/gluon/template.py", line 149, in output\n    return \'\'.join(output_aux(node, blocks) for node in self.nodes)\n  File "/home/darshan-ubuntu/Programming/web2py/gluon/template.py", line 149, in <genexpr>\n    return \'\'.join(output_aux(node, blocks) for node in self.nodes)\n  File "/home/darshan-ubuntu/Programming/web2py/gluon/template.py", line 77, in output_aux\n    if isinstance(node, BlockNode) \\\n  File "/home/darshan-ubuntu/Programming/web2py/gluon/template.py", line 149, in output\n    return \'\'.join(output_aux(node, blocks) for node in self.nodes)\n  File "/home/darshan-ubuntu/Programming/web2py/gluon/template.py", line 149, in <genexpr>\n    return \'\'.join(output_aux(node, blocks) for node in self.nodes)\n  File "/home/darshan-ubuntu/Programming/web2py/gluon/template.py", line 77, in output_aux\n    if isinstance(node, BlockNode) \\\n  File "/home/darshan-ubuntu/Programming/web2py/gluon/template.py", line 149, in output\n    return \'\'.join(output_aux(node, blocks) for node in self.nodes)\n  File "/home/darshan-ubuntu/Programming/web2py/gluon/template.py", line 149, in <genexpr>\n    return \'\'.join(output_aux(node, blocks) for node in self.nodes)\n  File "/home/darshan-ubuntu/Programming/web2py/gluon/template.py", line 77, in output_aux\n    if isinstance(node, BlockNode) \\\n  File "/home/darshan-ubuntu/Programming/web2py/gluon/template.py", line 149, in output\n    return \'\'.join(output_aux(node, blocks) for node in self.nodes)\n  File "/home/darshan-ubuntu/Programming/web2py/gluon/template.py", line 149, in <genexpr>\n    return \'\'.join(output_aux(node, blocks) for node in self.nodes)\n  File "/home/darshan-ubuntu/Programming/web2py/gluon/template.py", line 77, in output_aux\n    if isinstance(node, BlockNode) \\\n  File "/home/darshan-ubuntu/Programming/web2py/gluon/template.py", line 149, in output\n    return \'\'.join(output_aux(node, blocks) for node in self.nodes)\n  File "/home/darshan-ubuntu/Programming/web2py/gluon/template.py", line 149, in <genexpr>\n    return \'\'.join(output_aux(node, blocks) for node in self.nodes)\n  File "/home/darshan-ubuntu/Programming/web2py/gluon/template.py", line 77, in output_aux\n    if isinstance(node, BlockNode) \\\n  File "/home/darshan-ubuntu/Programming/web2py/gluon/template.py", line 149, in output\n    return \'\'.join(output_aux(node, blocks) for node in self.nodes)\n  File "/home/darshan-ubuntu/Programming/web2py/gluon/template.py", line 149, in <genexpr>\n    return \'\'.join(output_aux(node, blocks) for node in self.nodes)\n  File "/home/darshan-ubuntu/Programming/web2py/gluon/template.py", line 77, in output_aux\n    if isinstance(node, BlockNode) \\\n  File "/home/darshan-ubuntu/Programming/web2py/gluon/template.py", line 149, in output\n    return \'\'.join(output_aux(node, blocks) for node in self.nodes)\n  File "/home/darshan-ubuntu/Programming/web2py/gluon/template.py", line 149, in <genexpr>\n    return \'\'.join(output_aux(node, blocks) for node in self.nodes)\n  File "/home/darshan-ubuntu/Programming/web2py/gluon/template.py", line 77, in output_aux\n    if isinstance(node, BlockNode) \\\n  File "/home/darshan-ubuntu/Programming/web2py/gluon/template.py", line 149, in output\n    return \'\'.join(output_aux(node, blocks) for node in self.nodes)\n  File "/home/darshan-ubuntu/Programming/web2py/gluon/template.py", line 149, in <genexpr>\n    return \'\'.join(output_aux(node, blocks) for node in self.nodes)\n  File "/home/darshan-ubuntu/Programming/web2py/gluon/template.py", line 77, in output_aux\n    if isinstance(node, BlockNode) \\\n  File "/home/darshan-ubuntu/Programming/web2py/gluon/template.py", line 149, in output\n    return \'\'.join(output_aux(node, blocks) for node in self.nodes)\n  File "/home/darshan-ubuntu/Programming/web2py/gluon/template.py", line 149, in <genexpr>\n    return \'\'.join(output_aux(node, blocks) for node in self.nodes)\n  File "/home/darshan-ubuntu/Programming/web2py/gluon/template.py", line 77, in output_aux\n    if isinstance(node, BlockNode) \\\n  File "/home/darshan-ubuntu/Programming/web2py/gluon/template.py", line 149, in output\n    return \'\'.join(output_aux(node, blocks) for node in self.nodes)\n  File "/home/darshan-ubuntu/Programming/web2py/gluon/template.py", line 149, in <genexpr>\n    return \'\'.join(output_aux(node, blocks) for node in self.nodes)\n  File "/home/darshan-ubuntu/Programming/web2py/gluon/template.py", line 77, in output_aux\n    if isinstance(node, BlockNode) \\\n  File "/home/darshan-ubuntu/Programming/web2py/gluon/template.py", line 149, in output\n    return \'\'.join(output_aux(node, blocks) for node in self.nodes)\n  File "/home/darshan-ubuntu/Programming/web2py/gluon/template.py", line 149, in <genexpr>\n    return \'\'.join(output_aux(node, blocks) for node in self.nodes)\n  File "/home/darshan-ubuntu/Programming/web2py/gluon/template.py", line 77, in output_aux\n    if isinstance(node, BlockNode) \\\n  File "/home/darshan-ubuntu/Programming/web2py/gluon/template.py", line 149, in output\n    return \'\'.join(output_aux(node, blocks) for node in self.nodes)\n  File "/home/darshan-ubuntu/Programming/web2py/gluon/template.py", line 149, in <genexpr>\n    return \'\'.join(output_aux(node, blocks) for node in self.nodes)\n  File "/home/darshan-ubuntu/Programming/web2py/gluon/template.py", line 77, in output_aux\n    if isinstance(node, BlockNode) \\\n  File "/home/darshan-ubuntu/Programming/web2py/gluon/template.py", line 149, in output\n    return \'\'.join(output_aux(node, blocks) for node in self.nodes)\n  File "/home/darshan-ubuntu/Programming/web2py/gluon/template.py", line 149, in <genexpr>\n    return \'\'.join(output_aux(node, blocks) for node in self.nodes)\n  File "/home/darshan-ubuntu/Programming/web2py/gluon/template.py", line 77, in output_aux\n    if isinstance(node, BlockNode) \\\n  File "/home/darshan-ubuntu/Programming/web2py/gluon/template.py", line 149, in output\n    return \'\'.join(output_aux(node, blocks) for node in self.nodes)\n  File "/home/darshan-ubuntu/Programming/web2py/gluon/template.py", line 149, in <genexpr>\n    return \'\'.join(output_aux(node, blocks) for node in self.nodes)\n  File "/home/darshan-ubuntu/Programming/web2py/gluon/template.py", line 77, in output_aux\n    if isinstance(node, BlockNode) \\\n  File "/home/darshan-ubuntu/Programming/web2py/gluon/template.py", line 149, in output\n    return \'\'.join(output_aux(node, blocks) for node in self.nodes)\n  File "/home/darshan-ubuntu/Programming/web2py/gluon/template.py", line 149, in <genexpr>\n    return \'\'.join(output_aux(node, blocks) for node in self.nodes)\n  File "/home/darshan-ubuntu/Programming/web2py/gluon/template.py", line 77, in output_aux\n    if isinstance(node, BlockNode) \\\n  File "/home/darshan-ubuntu/Programming/web2py/gluon/template.py", line 149, in output\n    return \'\'.join(output_aux(node, blocks) for node in self.nodes)\n  File "/home/darshan-ubuntu/Programming/web2py/gluon/template.py", line 149, in <genexpr>\n    return \'\'.join(output_aux(node, blocks) for node in self.nodes)\n  File "/home/darshan-ubuntu/Programming/web2py/gluon/template.py", line 77, in output_aux\n    if isinstance(node, BlockNode) \\\n  File "/home/darshan-ubuntu/Programming/web2py/gluon/template.py", line 149, in output\n    return \'\'.join(output_aux(node, blocks) for node in self.nodes)\n  File "/home/darshan-ubuntu/Programming/web2py/gluon/template.py", line 149, in <genexpr>\n    return \'\'.join(output_aux(node, blocks) for node in self.nodes)\n  File "/home/darshan-ubuntu/Programming/web2py/gluon/template.py", line 77, in output_aux\n    if isinstance(node, BlockNode) \\\n  File "/home/darshan-ubuntu/Programming/web2py/gluon/template.py", line 149, in output\n    return \'\'.join(output_aux(node, blocks) for node in self.nodes)\n  File "/home/darshan-ubuntu/Programming/web2py/gluon/template.py", line 149, in <genexpr>\n    return \'\'.join(output_aux(node, blocks) for node in self.nodes)\n  File "/home/darshan-ubuntu/Programming/web2py/gluon/template.py", line 77, in output_aux\n    if isinstance(node, BlockNode) \\\n  File "/home/darshan-ubuntu/Programming/web2py/gluon/template.py", line 149, in output\n    return \'\'.join(output_aux(node, blocks) for node in self.nodes)\n  File "/home/darshan-ubuntu/Programming/web2py/gluon/template.py", line 149, in <genexpr>\n    return \'\'.join(output_aux(node, blocks) for node in self.nodes)\n  File "/home/darshan-ubuntu/Programming/web2py/gluon/template.py", line 77, in output_aux\n    if isinstance(node, BlockNode) \\\n  File "/home/darshan-ubuntu/Programming/web2py/gluon/template.py", line 149, in output\n    return \'\'.join(output_aux(node, blocks) for node in self.nodes)\n  File "/home/darshan-ubuntu/Programming/web2py/gluon/template.py", line 149, in <genexpr>\n    return \'\'.join(output_aux(node, blocks) for node in self.nodes)\n  File "/home/darshan-ubuntu/Programming/web2py/gluon/template.py", line 77, in output_aux\n    if isinstance(node, BlockNode) \\\n  File "/home/darshan-ubuntu/Programming/web2py/gluon/template.py", line 149, in output\n    return \'\'.join(output_aux(node, blocks) for node in self.nodes)\n  File "/home/darshan-ubuntu/Programming/web2py/gluon/template.py", line 149, in <genexpr>\n    return \'\'.join(output_aux(node, blocks) for node in self.nodes)\n  File "/home/darshan-ubuntu/Programming/web2py/gluon/template.py", line 77, in output_aux\n    if isinstance(node, BlockNode) \\\n  File "/home/darshan-ubuntu/Programming/web2py/gluon/template.py", line 149, in output\n    return \'\'.join(output_aux(node, blocks) for node in self.nodes)\n  File "/home/darshan-ubuntu/Programming/web2py/gluon/template.py", line 149, in <genexpr>\n    return \'\'.join(output_aux(node, blocks) for node in self.nodes)\n  File "/home/darshan-ubuntu/Programming/web2py/gluon/template.py", line 77, in output_aux\n    if isinstance(node, BlockNode) \\\n  File "/home/darshan-ubuntu/Programming/web2py/gluon/template.py", line 149, in output\n    return \'\'.join(output_aux(node, blocks) for node in self.nodes)\n  File "/home/darshan-ubuntu/Programming/web2py/gluon/template.py", line 149, in <genexpr>\n    return \'\'.join(output_aux(node, blocks) for node in self.nodes)\n  File "/home/darshan-ubuntu/Programming/web2py/gluon/template.py", line 77, in output_aux\n    if isinstance(node, BlockNode) \\\n  File "/home/darshan-ubuntu/Programming/web2py/gluon/template.py", line 149, in output\n    return \'\'.join(output_aux(node, blocks) for node in self.nodes)\n  File "/home/darshan-ubuntu/Programming/web2py/gluon/template.py", line 149, in <genexpr>\n    return \'\'.join(output_aux(node, blocks) for node in self.nodes)\n  File "/home/darshan-ubuntu/Programming/web2py/gluon/template.py", line 77, in output_aux\n    if isinstance(node, BlockNode) \\\n  File "/home/darshan-ubuntu/Programming/web2py/gluon/template.py", line 149, in output\n    return \'\'.join(output_aux(node, blocks) for node in self.nodes)\n  File "/home/darshan-ubuntu/Programming/web2py/gluon/template.py", line 149, in <genexpr>\n    return \'\'.join(output_aux(node, blocks) for node in self.nodes)\n  File "/home/darshan-ubuntu/Programming/web2py/gluon/template.py", line 77, in output_aux\n    if isinstance(node, BlockNode) \\\n  File "/home/darshan-ubuntu/Programming/web2py/gluon/template.py", line 149, in output\n    return \'\'.join(output_aux(node, blocks) for node in self.nodes)\n  File "/home/darshan-ubuntu/Programming/web2py/gluon/template.py", line 149, in <genexpr>\n    return \'\'.join(output_aux(node, blocks) for node in self.nodes)\n  File "/home/darshan-ubuntu/Programming/web2py/gluon/template.py", line 77, in output_aux\n    if isinstance(node, BlockNode) \\\n  File "/home/darshan-ubuntu/Programming/web2py/gluon/template.py", line 149, in output\n    return \'\'.join(output_aux(node, blocks) for node in self.nodes)\n  File "/home/darshan-ubuntu/Programming/web2py/gluon/template.py", line 149, in <genexpr>\n    return \'\'.join(output_aux(node, blocks) for node in self.nodes)\n  File "/home/darshan-ubuntu/Programming/web2py/gluon/template.py", line 77, in output_aux\n    if isinstance(node, BlockNode) \\\n  File "/home/darshan-ubuntu/Programming/web2py/gluon/template.py", line 149, in output\n    return \'\'.join(output_aux(node, blocks) for node in self.nodes)\n  File "/home/darshan-ubuntu/Programming/web2py/gluon/template.py", line 149, in <genexpr>\n    return \'\'.join(output_aux(node, blocks) for node in self.nodes)\n  File "/home/darshan-ubuntu/Programming/web2py/gluon/template.py", line 77, in output_aux\n    if isinstance(node, BlockNode) \\\n  File "/home/darshan-ubuntu/Programming/web2py/gluon/template.py", line 149, in output\n    return \'\'.join(output_aux(node, blocks) for node in self.nodes)\n  File "/home/darshan-ubuntu/Programming/web2py/gluon/template.py", line 149, in <genexpr>\n    return \'\'.join(output_aux(node, blocks) for node in self.nodes)\n  File "/home/darshan-ubuntu/Programming/web2py/gluon/template.py", line 77, in output_aux\n    if isinstance(node, BlockNode) \\\n  File "/home/darshan-ubuntu/Programming/web2py/gluon/template.py", line 149, in output\n    return \'\'.join(output_aux(node, blocks) for node in self.nodes)\n  File "/home/darshan-ubuntu/Programming/web2py/gluon/template.py", line 149, in <genexpr>\n    return \'\'.join(output_aux(node, blocks) for node in self.nodes)\n  File "/home/darshan-ubuntu/Programming/web2py/gluon/template.py", line 77, in output_aux\n    if isinstance(node, BlockNode) \\\n  File "/home/darshan-ubuntu/Programming/web2py/gluon/template.py", line 149, in output\n    return \'\'.join(output_aux(node, blocks) for node in self.nodes)\n  File "/home/darshan-ubuntu/Programming/web2py/gluon/template.py", line 149, in <genexpr>\n    return \'\'.join(output_aux(node, blocks) for node in self.nodes)\n  File "/home/darshan-ubuntu/Programming/web2py/gluon/template.py", line 77, in output_aux\n    if isinstance(node, BlockNode) \\\n  File "/home/darshan-ubuntu/Programming/web2py/gluon/template.py", line 149, in output\n    return \'\'.join(output_aux(node, blocks) for node in self.nodes)\n  File "/home/darshan-ubuntu/Programming/web2py/gluon/template.py", line 149, in <genexpr>\n    return \'\'.join(output_aux(node, blocks) for node in self.nodes)\n  File "/home/darshan-ubuntu/Programming/web2py/gluon/template.py", line 77, in output_aux\n    if isinstance(node, BlockNode) \\\n  File "/home/darshan-ubuntu/Programming/web2py/gluon/template.py", line 149, in output\n    return \'\'.join(output_aux(node, blocks) for node in self.nodes)\n  File "/home/darshan-ubuntu/Programming/web2py/gluon/template.py", line 149, in <genexpr>\n    return \'\'.join(output_aux(node, blocks) for node in self.nodes)\n  File "/home/darshan-ubuntu/Programming/web2py/gluon/template.py", line 77, in output_aux\n    if isinstance(node, BlockNode) \\\n  File "/home/darshan-ubuntu/Programming/web2py/gluon/template.py", line 149, in output\n    return \'\'.join(output_aux(node, blocks) for node in self.nodes)\n  File "/home/darshan-ubuntu/Programming/web2py/gluon/template.py", line 149, in <genexpr>\n    return \'\'.join(output_aux(node, blocks) for node in self.nodes)\n  File "/home/darshan-ubuntu/Programming/web2py/gluon/template.py", line 77, in output_aux\n    if isinstance(node, BlockNode) \\\n  File "/home/darshan-ubuntu/Programming/web2py/gluon/template.py", line 149, in output\n    return \'\'.join(output_aux(node, blocks) for node in self.nodes)\n  File "/home/darshan-ubuntu/Programming/web2py/gluon/template.py", line 149, in <genexpr>\n    return \'\'.join(output_aux(node, blocks) for node in self.nodes)\n  File "/home/darshan-ubuntu/Programming/web2py/gluon/template.py", line 77, in output_aux\n    if isinstance(node, BlockNode) \\\n  File "/home/darshan-ubuntu/Programming/web2py/gluon/template.py", line 149, in output\n    return \'\'.join(output_aux(node, blocks) for node in self.nodes)\n  File "/home/darshan-ubuntu/Programming/web2py/gluon/template.py", line 149, in <genexpr>\n    return \'\'.join(output_aux(node, blocks) for node in self.nodes)\n  File "/home/darshan-ubuntu/Programming/web2py/gluon/template.py", line 77, in output_aux\n    if isinstance(node, BlockNode) \\\n  File "/home/darshan-ubuntu/Programming/web2py/gluon/template.py", line 149, in output\n    return \'\'.join(output_aux(node, blocks) for node in self.nodes)\n  File "/home/darshan-ubuntu/Programming/web2py/gluon/template.py", line 149, in <genexpr>\n    return \'\'.join(output_aux(node, blocks) for node in self.nodes)\n  File "/home/darshan-ubuntu/Programming/web2py/gluon/template.py", line 77, in output_aux\n    if isinstance(node, BlockNode) \\\n  File "/home/darshan-ubuntu/Programming/web2py/gluon/template.py", line 149, in output\n    return \'\'.join(output_aux(node, blocks) for node in self.nodes)\n  File "/home/darshan-ubuntu/Programming/web2py/gluon/template.py", line 149, in <genexpr>\n    return \'\'.join(output_aux(node, blocks) for node in self.nodes)\n  File "/home/darshan-ubuntu/Programming/web2py/gluon/template.py", line 77, in output_aux\n    if isinstance(node, BlockNode) \\\n  File "/home/darshan-ubuntu/Programming/web2py/gluon/template.py", line 149, in output\n    return \'\'.join(output_aux(node, blocks) for node in self.nodes)\n  File "/home/darshan-ubuntu/Programming/web2py/gluon/template.py", line 149, in <genexpr>\n    return \'\'.join(output_aux(node, blocks) for node in self.nodes)\n  File "/home/darshan-ubuntu/Programming/web2py/gluon/template.py", line 77, in output_aux\n    if isinstance(node, BlockNode) \\\n  File "/home/darshan-ubuntu/Programming/web2py/gluon/template.py", line 149, in output\n    return \'\'.join(output_aux(node, blocks) for node in self.nodes)\n  File "/home/darshan-ubuntu/Programming/web2py/gluon/template.py", line 149, in <genexpr>\n    return \'\'.join(output_aux(node, blocks) for node in self.nodes)\n  File "/home/darshan-ubuntu/Programming/web2py/gluon/template.py", line 77, in output_aux\n    if isinstance(node, BlockNode) \\\n  File "/home/darshan-ubuntu/Programming/web2py/gluon/template.py", line 149, in output\n    return \'\'.join(output_aux(node, blocks) for node in self.nodes)\n  File "/home/darshan-ubuntu/Programming/web2py/gluon/template.py", line 149, in <genexpr>\n    return \'\'.join(output_aux(node, blocks) for node in self.nodes)\n  File "/home/darshan-ubuntu/Programming/web2py/gluon/template.py", line 77, in output_aux\n    if isinstance(node, BlockNode) \\\n  File "/home/darshan-ubuntu/Programming/web2py/gluon/template.py", line 149, in output\n    return \'\'.join(output_aux(node, blocks) for node in self.nodes)\n  File "/home/darshan-ubuntu/Programming/web2py/gluon/template.py", line 149, in <genexpr>\n    return \'\'.join(output_aux(node, blocks) for node in self.nodes)\n  File "/home/darshan-ubuntu/Programming/web2py/gluon/template.py", line 77, in output_aux\n    if isinstance(node, BlockNode) \\\n  File "/home/darshan-ubuntu/Programming/web2py/gluon/template.py", line 149, in output\n    return \'\'.join(output_aux(node, blocks) for node in self.nodes)\n  File "/home/darshan-ubuntu/Programming/web2py/gluon/template.py", line 149, in <genexpr>\n    return \'\'.join(output_aux(node, blocks) for node in self.nodes)\n  File "/home/darshan-ubuntu/Programming/web2py/gluon/template.py", line 77, in output_aux\n    if isinstance(node, BlockNode) \\\n  File "/home/darshan-ubuntu/Programming/web2py/gluon/template.py", line 149, in output\n    return \'\'.join(output_aux(node, blocks) for node in self.nodes)\n  File "/home/darshan-ubuntu/Programming/web2py/gluon/template.py", line 149, in <genexpr>\n    return \'\'.join(output_aux(node, blocks) for node in self.nodes)\n  File "/home/darshan-ubuntu/Programming/web2py/gluon/template.py", line 77, in output_aux\n    if isinstance(node, BlockNode) \\\n  File "/home/darshan-ubuntu/Programming/web2py/gluon/template.py", line 149, in output\n    return \'\'.join(output_aux(node, blocks) for node in self.nodes)\n  File "/home/darshan-ubuntu/Programming/web2py/gluon/template.py", line 149, in <genexpr>\n    return \'\'.join(output_aux(node, blocks) for node in self.nodes)\n  File "/home/darshan-ubuntu/Programming/web2py/gluon/template.py", line 77, in output_aux\n    if isinstance(node, BlockNode) \\\n  File "/home/darshan-ubuntu/Programming/web2py/gluon/template.py", line 149, in output\n    return \'\'.join(output_aux(node, blocks) for node in self.nodes)\n  File "/home/darshan-ubuntu/Programming/web2py/gluon/template.py", line 149, in <genexpr>\n    return \'\'.join(output_aux(node, blocks) for node in self.nodes)\n  File "/home/darshan-ubuntu/Programming/web2py/gluon/template.py", line 77, in output_aux\n    if isinstance(node, BlockNode) \\\n  File "/home/darshan-ubuntu/Programming/web2py/gluon/template.py", line 149, in output\n    return \'\'.join(output_aux(node, blocks) for node in self.nodes)\n  File "/home/darshan-ubuntu/Programming/web2py/gluon/template.py", line 149, in <genexpr>\n    return \'\'.join(output_aux(node, blocks) for node in self.nodes)\n  File "/home/darshan-ubuntu/Programming/web2py/gluon/template.py", line 77, in output_aux\n    if isinstance(node, BlockNode) \\\n  File "/home/darshan-ubuntu/Programming/web2py/gluon/template.py", line 149, in output\n    return \'\'.join(output_aux(node, blocks) for node in self.nodes)\n  File "/home/darshan-ubuntu/Programming/web2py/gluon/template.py", line 149, in <genexpr>\n    return \'\'.join(output_aux(node, blocks) for node in self.nodes)\n  File "/home/darshan-ubuntu/Programming/web2py/gluon/template.py", line 77, in output_aux\n    if isinstance(node, BlockNode) \\\n  File "/home/darshan-ubuntu/Programming/web2py/gluon/template.py", line 149, in output\n    return \'\'.join(output_aux(node, blocks) for node in self.nodes)\n  File "/home/darshan-ubuntu/Programming/web2py/gluon/template.py", line 149, in <genexpr>\n    return \'\'.join(output_aux(node, blocks) for node in self.nodes)\n  File "/home/darshan-ubuntu/Programming/web2py/gluon/template.py", line 77, in output_aux\n    if isinstance(node, BlockNode) \\\n  File "/home/darshan-ubuntu/Programming/web2py/gluon/template.py", line 149, in output\n    return \'\'.join(output_aux(node, blocks) for node in self.nodes)\n  File "/home/darshan-ubuntu/Programming/web2py/gluon/template.py", line 149, in <genexpr>\n    return \'\'.join(output_aux(node, blocks) for node in self.nodes)\n  File "/home/darshan-ubuntu/Programming/web2py/gluon/template.py", line 77, in output_aux\n    if isinstance(node, BlockNode) \\\n  File "/home/darshan-ubuntu/Programming/web2py/gluon/template.py", line 149, in output\n    return \'\'.join(output_aux(node, blocks) for node in self.nodes)\n  File "/home/darshan-ubuntu/Programming/web2py/gluon/template.py", line 149, in <genexpr>\n    return \'\'.join(output_aux(node, blocks) for node in self.nodes)\n  File "/home/darshan-ubuntu/Programming/web2py/gluon/template.py", line 77, in output_aux\n    if isinstance(node, BlockNode) \\\n  File "/home/darshan-ubuntu/Programming/web2py/gluon/template.py", line 149, in output\n    return \'\'.join(output_aux(node, blocks) for node in self.nodes)\n  File "/home/darshan-ubuntu/Programming/web2py/gluon/template.py", line 149, in <genexpr>\n    return \'\'.join(output_aux(node, blocks) for node in self.nodes)\n  File "/home/darshan-ubuntu/Programming/web2py/gluon/template.py", line 77, in output_aux\n    if isinstance(node, BlockNode) \\\n  File "/home/darshan-ubuntu/Programming/web2py/gluon/template.py", line 149, in output\n    return \'\'.join(output_aux(node, blocks) for node in self.nodes)\n  File "/home/darshan-ubuntu/Programming/web2py/gluon/template.py", line 149, in <genexpr>\n    return \'\'.join(output_aux(node, blocks) for node in self.nodes)\n  File "/home/darshan-ubuntu/Programming/web2py/gluon/template.py", line 77, in output_aux\n    if isinstance(node, BlockNode) \\\n  File "/home/darshan-ubuntu/Programming/web2py/gluon/template.py", line 149, in output\n    return \'\'.join(output_aux(node, blocks) for node in self.nodes)\n  File "/home/darshan-ubuntu/Programming/web2py/gluon/template.py", line 149, in <genexpr>\n    return \'\'.join(output_aux(node, blocks) for node in self.nodes)\n  File "/home/darshan-ubuntu/Programming/web2py/gluon/template.py", line 77, in output_aux\n    if isinstance(node, BlockNode) \\\n  File "/home/darshan-ubuntu/Programming/web2py/gluon/template.py", line 149, in output\n    return \'\'.join(output_aux(node, blocks) for node in self.nodes)\n  File "/home/darshan-ubuntu/Programming/web2py/gluon/template.py", line 149, in <genexpr>\n    return \'\'.join(output_aux(node, blocks) for node in self.nodes)\n  File "/home/darshan-ubuntu/Programming/web2py/gluon/template.py", line 77, in output_aux\n    if isinstance(node, BlockNode) \\\n  File "/home/darshan-ubuntu/Programming/web2py/gluon/template.py", line 149, in output\n    return \'\'.join(output_aux(node, blocks) for node in self.nodes)\n  File "/home/darshan-ubuntu/Programming/web2py/gluon/template.py", line 149, in <genexpr>\n    return \'\'.join(output_aux(node, blocks) for node in self.nodes)\n  File "/home/darshan-ubuntu/Programming/web2py/gluon/template.py", line 77, in output_aux\n    if isinstance(node, BlockNode) \\\n  File "/home/darshan-ubuntu/Programming/web2py/gluon/template.py", line 149, in output\n    return \'\'.join(output_aux(node, blocks) for node in self.nodes)\n  File "/home/darshan-ubuntu/Programming/web2py/gluon/template.py", line 149, in <genexpr>\n    return \'\'.join(output_aux(node, blocks) for node in self.nodes)\n  File "/home/darshan-ubuntu/Programming/web2py/gluon/template.py", line 77, in output_aux\n    if isinstance(node, BlockNode) \\\n  File "/home/darshan-ubuntu/Programming/web2py/gluon/template.py", line 149, in output\n    return \'\'.join(output_aux(node, blocks) for node in self.nodes)\n  File "/home/darshan-ubuntu/Programming/web2py/gluon/template.py", line 149, in <genexpr>\n    return \'\'.join(output_aux(node, blocks) for node in self.nodes)\n  File "/home/darshan-ubuntu/Programming/web2py/gluon/template.py", line 77, in output_aux\n    if isinstance(node, BlockNode) \\\n  File "/home/darshan-ubuntu/Programming/web2py/gluon/template.py", line 149, in output\n    return \'\'.join(output_aux(node, blocks) for node in self.nodes)\n  File "/home/darshan-ubuntu/Programming/web2py/gluon/template.py", line 149, in <genexpr>\n    return \'\'.join(output_aux(node, blocks) for node in self.nodes)\n  File "/home/darshan-ubuntu/Programming/web2py/gluon/template.py", line 77, in output_aux\n    if isinstance(node, BlockNode) \\\n  File "/home/darshan-ubuntu/Programming/web2py/gluon/template.py", line 149, in output\n    return \'\'.join(output_aux(node, blocks) for node in self.nodes)\n  File "/home/darshan-ubuntu/Programming/web2py/gluon/template.py", line 149, in <genexpr>\n    return \'\'.join(output_aux(node, blocks) for node in self.nodes)\n  File "/home/darshan-ubuntu/Programming/web2py/gluon/template.py", line 77, in output_aux\n    if isinstance(node, BlockNode) \\\n  File "/home/darshan-ubuntu/Programming/web2py/gluon/template.py", line 149, in output\n    return \'\'.join(output_aux(node, blocks) for node in self.nodes)\n  File "/home/darshan-ubuntu/Programming/web2py/gluon/template.py", line 149, in <genexpr>\n    return \'\'.join(output_aux(node, blocks) for node in self.nodes)\n  File "/home/darshan-ubuntu/Programming/web2py/gluon/template.py", line 77, in output_aux\n    if isinstance(node, BlockNode) \\\n  File "/home/darshan-ubuntu/Programming/web2py/gluon/template.py", line 149, in output\n    return \'\'.join(output_aux(node, blocks) for node in self.nodes)\n  File "/home/darshan-ubuntu/Programming/web2py/gluon/template.py", line 149, in <genexpr>\n    return \'\'.join(output_aux(node, blocks) for node in self.nodes)\n  File "/home/darshan-ubuntu/Programming/web2py/gluon/template.py", line 77, in output_aux\n    if isinstance(node, BlockNode) \\\n  File "/home/darshan-ubuntu/Programming/web2py/gluon/template.py", line 149, in output\n    return \'\'.join(output_aux(node, blocks) for node in self.nodes)\n  File "/home/darshan-ubuntu/Programming/web2py/gluon/template.py", line 149, in <genexpr>\n    return \'\'.join(output_aux(node, blocks) for node in self.nodes)\n  File "/home/darshan-ubuntu/Programming/web2py/gluon/template.py", line 77, in output_aux\n    if isinstance(node, BlockNode) \\\n  File "/home/darshan-ubuntu/Programming/web2py/gluon/template.py", line 149, in output\n    return \'\'.join(output_aux(node, blocks) for node in self.nodes)\n  File "/home/darshan-ubuntu/Programming/web2py/gluon/template.py", line 149, in <genexpr>\n    return \'\'.join(output_aux(node, blocks) for node in self.nodes)\n  File "/home/darshan-ubuntu/Programming/web2py/gluon/template.py", line 77, in output_aux\n    if isinstance(node, BlockNode) \\\n  File "/home/darshan-ubuntu/Programming/web2py/gluon/template.py", line 149, in output\n    return \'\'.join(output_aux(node, blocks) for node in self.nodes)\n  File "/home/darshan-ubuntu/Programming/web2py/gluon/template.py", line 149, in <genexpr>\n    return \'\'.join(output_aux(node, blocks) for node in self.nodes)\n  File "/home/darshan-ubuntu/Programming/web2py/gluon/template.py", line 77, in output_aux\n    if isinstance(node, BlockNode) \\\n  File "/home/darshan-ubuntu/Programming/web2py/gluon/template.py", line 149, in output\n    return \'\'.join(output_aux(node, blocks) for node in self.nodes)\n  File "/home/darshan-ubuntu/Programming/web2py/gluon/template.py", line 149, in <genexpr>\n    return \'\'.join(output_aux(node, blocks) for node in self.nodes)\n  File "/home/darshan-ubuntu/Programming/web2py/gluon/template.py", line 77, in output_aux\n    if isinstance(node, BlockNode) \\\n  File "/home/darshan-ubuntu/Programming/web2py/gluon/template.py", line 149, in output\n    return \'\'.join(output_aux(node, blocks) for node in self.nodes)\n  File "/home/darshan-ubuntu/Programming/web2py/gluon/template.py", line 149, in <genexpr>\n    return \'\'.join(output_aux(node, blocks) for node in self.nodes)\n  File "/home/darshan-ubuntu/Programming/web2py/gluon/template.py", line 77, in output_aux\n    if isinstance(node, BlockNode) \\\n  File "/home/darshan-ubuntu/Programming/web2py/gluon/template.py", line 149, in output\n    return \'\'.join(output_aux(node, blocks) for node in self.nodes)\n  File "/home/darshan-ubuntu/Programming/web2py/gluon/template.py", line 149, in <genexpr>\n    return \'\'.join(output_aux(node, blocks) for node in self.nodes)\n  File "/home/darshan-ubuntu/Programming/web2py/gluon/template.py", line 77, in output_aux\n    if isinstance(node, BlockNode) \\\n  File "/home/darshan-ubuntu/Programming/web2py/gluon/template.py", line 149, in output\n    return \'\'.join(output_aux(node, blocks) for node in self.nodes)\n  File "/home/darshan-ubuntu/Programming/web2py/gluon/template.py", line 149, in <genexpr>\n    return \'\'.join(output_aux(node, blocks) for node in self.nodes)\n  File "/home/darshan-ubuntu/Programming/web2py/gluon/template.py", line 77, in output_aux\n    if isinstance(node, BlockNode) \\\n  File "/home/darshan-ubuntu/Programming/web2py/gluon/template.py", line 149, in output\n    return \'\'.join(output_aux(node, blocks) for node in self.nodes)\n  File "/home/darshan-ubuntu/Programming/web2py/gluon/template.py", line 149, in <genexpr>\n    return \'\'.join(output_aux(node, blocks) for node in self.nodes)\n  File "/home/darshan-ubuntu/Programming/web2py/gluon/template.py", line 77, in output_aux\n    if isinstance(node, BlockNode) \\\n  File "/home/darshan-ubuntu/Programming/web2py/gluon/template.py", line 149, in output\n    return \'\'.join(output_aux(node, blocks) for node in self.nodes)\n  File "/home/darshan-ubuntu/Programming/web2py/gluon/template.py", line 149, in <genexpr>\n    return \'\'.join(output_aux(node, blocks) for node in self.nodes)\n  File "/home/darshan-ubuntu/Programming/web2py/gluon/template.py", line 77, in output_aux\n    if isinstance(node, BlockNode) \\\n  File "/home/darshan-ubuntu/Programming/web2py/gluon/template.py", line 149, in output\n    return \'\'.join(output_aux(node, blocks) for node in self.nodes)\n  File "/home/darshan-ubuntu/Programming/web2py/gluon/template.py", line 149, in <genexpr>\n    return \'\'.join(output_aux(node, blocks) for node in self.nodes)\n  File "/home/darshan-ubuntu/Programming/web2py/gluon/template.py", line 77, in output_aux\n    if isinstance(node, BlockNode) \\\n  File "/home/darshan-ubuntu/Programming/web2py/gluon/template.py", line 149, in output\n    return \'\'.join(output_aux(node, blocks) for node in self.nodes)\n  File "/home/darshan-ubuntu/Programming/web2py/gluon/template.py", line 149, in <genexpr>\n    return \'\'.join(output_aux(node, blocks) for node in self.nodes)\n  File "/home/darshan-ubuntu/Programming/web2py/gluon/template.py", line 77, in output_aux\n    if isinstance(node, BlockNode) \\\n  File "/home/darshan-ubuntu/Programming/web2py/gluon/template.py", line 149, in output\n    return \'\'.join(output_aux(node, blocks) for node in self.nodes)\n  File "/home/darshan-ubuntu/Programming/web2py/gluon/template.py", line 149, in <genexpr>\n    return \'\'.join(output_aux(node, blocks) for node in self.nodes)\n  File "/home/darshan-ubuntu/Programming/web2py/gluon/template.py", line 77, in output_aux\n    if isinstance(node, BlockNode) \\\n  File "/home/darshan-ubuntu/Programming/web2py/gluon/template.py", line 149, in output\n    return \'\'.join(output_aux(node, blocks) for node in self.nodes)\n  File "/home/darshan-ubuntu/Programming/web2py/gluon/template.py", line 149, in <genexpr>\n    return \'\'.join(output_aux(node, blocks) for node in self.nodes)\n  File "/home/darshan-ubuntu/Programming/web2py/gluon/template.py", line 77, in output_aux\n    if isinstance(node, BlockNode) \\\n  File "/home/darshan-ubuntu/Programming/web2py/gluon/template.py", line 149, in output\n    return \'\'.join(output_aux(node, blocks) for node in self.nodes)\n  File "/home/darshan-ubuntu/Programming/web2py/gluon/template.py", line 149, in <genexpr>\n    return \'\'.join(output_aux(node, blocks) for node in self.nodes)\n  File "/home/darshan-ubuntu/Programming/web2py/gluon/template.py", line 77, in output_aux\n    if isinstance(node, BlockNode) \\\n  File "/home/darshan-ubuntu/Programming/web2py/gluon/template.py", line 149, in output\n    return \'\'.join(output_aux(node, blocks) for node in self.nodes)\n  File "/home/darshan-ubuntu/Programming/web2py/gluon/template.py", line 149, in <genexpr>\n    return \'\'.join(output_aux(node, blocks) for node in self.nodes)\n  File "/home/darshan-ubuntu/Programming/web2py/gluon/template.py", line 77, in output_aux\n    if isinstance(node, BlockNode) \\\n  File "/home/darshan-ubuntu/Programming/web2py/gluon/template.py", line 149, in output\n    return \'\'.join(output_aux(node, blocks) for node in self.nodes)\n  File "/home/darshan-ubuntu/Programming/web2py/gluon/template.py", line 149, in <genexpr>\n    return \'\'.join(output_aux(node, blocks) for node in self.nodes)\n  File "/home/darshan-ubuntu/Programming/web2py/gluon/template.py", line 77, in output_aux\n    if isinstance(node, BlockNode) \\\n  File "/home/darshan-ubuntu/Programming/web2py/gluon/template.py", line 149, in output\n    return \'\'.join(output_aux(node, blocks) for node in self.nodes)\n  File "/home/darshan-ubuntu/Programming/web2py/gluon/template.py", line 149, in <genexpr>\n    return \'\'.join(output_aux(node, blocks) for node in self.nodes)\n  File "/home/darshan-ubuntu/Programming/web2py/gluon/template.py", line 77, in output_aux\n    if isinstance(node, BlockNode) \\\n  File "/home/darshan-ubuntu/Programming/web2py/gluon/template.py", line 149, in output\n    return \'\'.join(output_aux(node, blocks) for node in self.nodes)\n  File "/home/darshan-ubuntu/Programming/web2py/gluon/template.py", line 149, in <genexpr>\n    return \'\'.join(output_aux(node, blocks) for node in self.nodes)\n  File "/home/darshan-ubuntu/Programming/web2py/gluon/template.py", line 77, in output_aux\n    if isinstance(node, BlockNode) \\\n  File "/home/darshan-ubuntu/Programming/web2py/gluon/template.py", line 149, in output\n    return \'\'.join(output_aux(node, blocks) for node in self.nodes)\n  File "/home/darshan-ubuntu/Programming/web2py/gluon/template.py", line 149, in <genexpr>\n    return \'\'.join(output_aux(node, blocks) for node in self.nodes)\n  File "/home/darshan-ubuntu/Programming/web2py/gluon/template.py", line 77, in output_aux\n    if isinstance(node, BlockNode) \\\n  File "/home/darshan-ubuntu/Programming/web2py/gluon/template.py", line 149, in output\n    return \'\'.join(output_aux(node, blocks) for node in self.nodes)\n  File "/home/darshan-ubuntu/Programming/web2py/gluon/template.py", line 149, in <genexpr>\n    return \'\'.join(output_aux(node, blocks) for node in self.nodes)\n  File "/home/darshan-ubuntu/Programming/web2py/gluon/template.py", line 77, in output_aux\n    if isinstance(node, BlockNode) \\\n  File "/home/darshan-ubuntu/Programming/web2py/gluon/template.py", line 149, in output\n    return \'\'.join(output_aux(node, blocks) for node in self.nodes)\n  File "/home/darshan-ubuntu/Programming/web2py/gluon/template.py", line 149, in <genexpr>\n    return \'\'.join(output_aux(node, blocks) for node in self.nodes)\n  File "/home/darshan-ubuntu/Programming/web2py/gluon/template.py", line 77, in output_aux\n    if isinstance(node, BlockNode) \\\n  File "/home/darshan-ubuntu/Programming/web2py/gluon/template.py", line 149, in output\n    return \'\'.join(output_aux(node, blocks) for node in self.nodes)\n  File "/home/darshan-ubuntu/Programming/web2py/gluon/template.py", line 149, in <genexpr>\n    return \'\'.join(output_aux(node, blocks) for node in self.nodes)\n  File "/home/darshan-ubuntu/Programming/web2py/gluon/template.py", line 77, in output_aux\n    if isinstance(node, BlockNode) \\\n  File "/home/darshan-ubuntu/Programming/web2py/gluon/template.py", line 149, in output\n    return \'\'.join(output_aux(node, blocks) for node in self.nodes)\n  File "/home/darshan-ubuntu/Programming/web2py/gluon/template.py", line 149, in <genexpr>\n    return \'\'.join(output_aux(node, blocks) for node in self.nodes)\n  File "/home/darshan-ubuntu/Programming/web2py/gluon/template.py", line 77, in output_aux\n    if isinstance(node, BlockNode) \\\n  File "/home/darshan-ubuntu/Programming/web2py/gluon/template.py", line 149, in output\n    return \'\'.join(output_aux(node, blocks) for node in self.nodes)\n  File "/home/darshan-ubuntu/Programming/web2py/gluon/template.py", line 149, in <genexpr>\n    return \'\'.join(output_aux(node, blocks) for node in self.nodes)\n  File "/home/darshan-ubuntu/Programming/web2py/gluon/template.py", line 77, in output_aux\n    if isinstance(node, BlockNode) \\\n  File "/home/darshan-ubuntu/Programming/web2py/gluon/template.py", line 149, in output\n    return \'\'.join(output_aux(node, blocks) for node in self.nodes)\n  File "/home/darshan-ubuntu/Programming/web2py/gluon/template.py", line 149, in <genexpr>\n    return \'\'.join(output_aux(node, blocks) for node in self.nodes)\n  File "/home/darshan-ubuntu/Programming/web2py/gluon/template.py", line 77, in output_aux\n    if isinstance(node, BlockNode) \\\n  File "/home/darshan-ubuntu/Programming/web2py/gluon/template.py", line 149, in output\n    return \'\'.join(output_aux(node, blocks) for node in self.nodes)\n  File "/home/darshan-ubuntu/Programming/web2py/gluon/template.py", line 149, in <genexpr>\n    return \'\'.join(output_aux(node, blocks) for node in self.nodes)\n  File "/home/darshan-ubuntu/Programming/web2py/gluon/template.py", line 77, in output_aux\n    if isinstance(node, BlockNode) \\\n  File "/home/darshan-ubuntu/Programming/web2py/gluon/template.py", line 149, in output\n    return \'\'.join(output_aux(node, blocks) for node in self.nodes)\n  File "/home/darshan-ubuntu/Programming/web2py/gluon/template.py", line 149, in <genexpr>\n    return \'\'.join(output_aux(node, blocks) for node in self.nodes)\n  File "/home/darshan-ubuntu/Programming/web2py/gluon/template.py", line 77, in output_aux\n    if isinstance(node, BlockNode) \\\n  File "/home/darshan-ubuntu/Programming/web2py/gluon/template.py", line 149, in output\n    return \'\'.join(output_aux(node, blocks) for node in self.nodes)\n  File "/home/darshan-ubuntu/Programming/web2py/gluon/template.py", line 149, in <genexpr>\n    return \'\'.join(output_aux(node, blocks) for node in self.nodes)\n  File "/home/darshan-ubuntu/Programming/web2py/gluon/template.py", line 77, in output_aux\n    if isinstance(node, BlockNode) \\\n  File "/home/darshan-ubuntu/Programming/web2py/gluon/template.py", line 149, in output\n    return \'\'.join(output_aux(node, blocks) for node in self.nodes)\n  File "/home/darshan-ubuntu/Programming/web2py/gluon/template.py", line 149, in <genexpr>\n    return \'\'.join(output_aux(node, blocks) for node in self.nodes)\n  File "/home/darshan-ubuntu/Programming/web2py/gluon/template.py", line 77, in output_aux\n    if isinstance(node, BlockNode) \\\n  File "/home/darshan-ubuntu/Programming/web2py/gluon/template.py", line 149, in output\n    return \'\'.join(output_aux(node, blocks) for node in self.nodes)\n  File "/home/darshan-ubuntu/Programming/web2py/gluon/template.py", line 149, in <genexpr>\n    return \'\'.join(output_aux(node, blocks) for node in self.nodes)\n  File "/home/darshan-ubuntu/Programming/web2py/gluon/template.py", line 77, in output_aux\n    if isinstance(node, BlockNode) \\\n  File "/home/darshan-ubuntu/Programming/web2py/gluon/template.py", line 149, in output\n    return \'\'.join(output_aux(node, blocks) for node in self.nodes)\n  File "/home/darshan-ubuntu/Programming/web2py/gluon/template.py", line 149, in <genexpr>\n    return \'\'.join(output_aux(node, blocks) for node in self.nodes)\n  File "/home/darshan-ubuntu/Programming/web2py/gluon/template.py", line 77, in output_aux\n    if isinstance(node, BlockNode) \\\n  File "/home/darshan-ubuntu/Programming/web2py/gluon/template.py", line 149, in output\n    return \'\'.join(output_aux(node, blocks) for node in self.nodes)\n  File "/home/darshan-ubuntu/Programming/web2py/gluon/template.py", line 149, in <genexpr>\n    return \'\'.join(output_aux(node, blocks) for node in self.nodes)\n  File "/home/darshan-ubuntu/Programming/web2py/gluon/template.py", line 77, in output_aux\n    if isinstance(node, BlockNode) \\\n  File "/home/darshan-ubuntu/Programming/web2py/gluon/template.py", line 149, in output\n    return \'\'.join(output_aux(node, blocks) for node in self.nodes)\n  File "/home/darshan-ubuntu/Programming/web2py/gluon/template.py", line 149, in <genexpr>\n    return \'\'.join(output_aux(node, blocks) for node in self.nodes)\n  File "/home/darshan-ubuntu/Programming/web2py/gluon/template.py", line 78, in output_aux\n    else str(node)\nRuntimeError: maximum recursion depth exceeded\n'
p9
s.