(dp1
S'output'
p2
S"<type 'exceptions.NameError'> name 'a' is not defined"
p3
sS'layer'
p4
S'/home/darshan-ubuntu/Project/web2py/applications/PhoneReviews/views/default/specifications.html'
p5
sS'code'
p6
S'response.write(\'<!DOCTYPE html>\\n<html class="no-js" lang="\', escape=False)\nresponse.write(T.accepted_language or \'en\')\nresponse.write(\'"> \\n<head>\\n<title>\', escape=False)\nresponse.write(response.title or request.application)\nresponse.write(\'</title>\\n  <meta charset="utf-8" />\\n    <meta name="application-name" content="\', escape=False)\nresponse.write(request.application)\nresponse.write(\'" />\\n\\n  <link rel="shortcut icon" href="\', escape=False)\nresponse.write(URL(\'static\',\'images/favicon.ico\'))\nresponse.write(\'" type="image/x-icon">\\n  <link rel="apple-touch-icon" href="\', escape=False)\nresponse.write(URL(\'static\',\'images/favicon.png\'))\nresponse.write(\'">\\n  <link rel="stylesheet" href="\', escape=False)\nresponse.write(URL(\'static\',\'css/footer.css\'))\nresponse.write(\'" type=\\\'text/css\\\'>\\n\\n  <!-- All JavaScript at the bottom, except for Modernizr which enables\\n       HTML5 elements & feature detects -->\\n  <script src="\', escape=False)\nresponse.write(URL(\'static\',\'js/modernizr.custom.js\'))\nresponse.write(\'"></script>\\n\\n  <!-- include stylesheets -->\\n  \', escape=False)\nresponse.files.insert(0,URL(\'static\',\'css/web2py.css\'))\nresponse.files.insert(0,URL(\'static\',\'css/bootstrap.css\'))\nresponse.files.insert(0,URL(\'static\',\'css/offcanvas.css\'))\nresponse.files.insert(0,URL(\'static\',\'css/untitled.css\'))\nresponse.files.insert(1,URL(\'static\',\'css/bootstrap.min.css\'))\nresponse.files.insert(2,URL(\'static\',\'css/bootstrap-responsive.min.css\'))\nresponse.files.insert(3,URL(\'static\',\'css/web2py_bootstrap.css\'))\nresponse.files.insert(3,URL(\'static\',\'css/specifications.css\'))\nresponse.write(\'\\n\\n  \', escape=False)\nresponse.write(\'<script type="text/javascript"><!--\\n    // These variables are used by the web2py_ajax_init function in web2py_ajax.js (which is loaded below).\\n    var w2p_ajax_confirm_message = "\', escape=False)\nresponse.write(T(\'Are you sure you want to delete this object?\'))\nresponse.write(\'";\\n    var w2p_ajax_disable_with_message = "\', escape=False)\nresponse.write(T(\'Working...\'))\nresponse.write(\'";\\n    var w2p_ajax_date_format = "\', escape=False)\nresponse.write(T(\'%Y-%m-%d\'))\nresponse.write(\'";\\n    var w2p_ajax_datetime_format = "\', escape=False)\nresponse.write(T(\'%Y-%m-%d %H:%M:%S\'))\nresponse.write(\'";\\n    var ajax_error_500 = \\\'\', escape=False)\nresponse.write(T.M(\'An error occured, please [[reload %s]] the page\') % URL(args=request.args, vars=request.get_vars))\nresponse.write("\'\\n    //--></script>\\n", escape=False)\nresponse.files.insert(0,URL(\'static\',\'js/jquery.js\'))\nresponse.files.insert(1,URL(\'static\',\'css/calendar.css\'))\nresponse.files.insert(2,URL(\'static\',\'js/calendar.js\'))\nresponse.files.insert(3,URL(\'static\',\'js/web2py.js\'))\nresponse.include_meta()\nresponse.include_files()\nresponse.write(\'\\n\', escape=False)\nresponse.write(\'\\n\\n  <noscript><link href="\', escape=False)\nresponse.write(URL(\'static\', \'css/web2py_bootstrap_nojs.css\'))\nresponse.write(\'" rel="stylesheet" type="text/css" /></noscript>\\n\\n  <style type="text/css">\\n    a.loser{\\n      vertical-align:middle;\\n      color:red;\\n    }\\n  </style>\\n  \', escape=False)\nresponse.write(\'\\n</head>\\n\\n<body onload="makeActive()">\\n\', escape=False)\nuser=request.vars[\'user\']\nresponse.write(\'\\n  <!-- Navbar ================================================== -->\\n  <div class="navbar navbar-inverse">\\n      <div class="container">\\n        \', escape=False)\nis_mobile=request.user_agent().is_mobile\nresponse.write(\'\\n        <!-- the next tag is necessary for bootstrap menus, do not remove -->\\n        <button type="button" class="btn btn-navbar" data-toggle="collapse" data-target=".nav-collapse" style="\', escape=False)\nresponse.write(\'display:none;\' if not is_mobile else \'\')\nresponse.write(\'">\\n          <span class="icon-bar"></span>\\n          <span class="icon-bar"></span>\\n          <span class="icon-bar"></span>\\n        </button>\\n        <ul id="navbar" class="nav pull-left">\\n          <li>\\n            \', escape=False)\nif user=="None":\n    response.write(\'\\n            <a href=\', escape=False)\n    response.write(URL(\'index\'))\n    response.write(\' style="font-size:20px;"><strong>PhoneStats</strong></a>\\n            \', escape=False)\nelse:\n    response.write(\'\\n            <a href=\', escape=False)\n    response.write(URL(\'index\', vars=dict(user=request.vars[\'user\'])))\n    response.write(\' style="font-size:20px;"><strong>PhoneStats</strong></a>\\n            \', escape=False)\n    pass\nresponse.write(\'\\n          </li>\\n        </ul>\\n        <ul id="navbar" class="nav pull-right">\\n          \', escape=False)\nif user=="None":\n    response.write(\'\\n          <li>\\n            <a href="index.html">Home</a>\\n          </li>\\n          <li>\\n            <a href="login.html">Login</a>\\n          </li>\\n          <li>\\n            <a href="register.html">Register</a>\\n          </li>\\n          \', escape=False)\nelse:\n    response.write(\'\\n          <li>\\n            <a href=\', escape=False)\n    response.write(URL(\'index\', vars=dict(user=request.vars[\'user\'])))\n    response.write(\'>Home</a>\\n          </li>\\n          <li>\\n            <a href=\', escape=False)\n    response.write(URL(\'profile\', vars=dict(user=request.vars[\'user\'])))\n    response.write(\'>\', escape=False)\n    response.write(request.vars[\'user\'])\n    response.write(\'</a>\\n          </li>\\n          \', escape=False)\n    pass\nresponse.write(\'\\n        </ul>\\n        <div class="\', escape=False)\nresponse.write(\'nav-collapse\' if is_mobile else \'nav\')\nresponse.write(\'">\\n        </div><!--/.nav-collapse -->\\n      </div>\\n  </div><!--/top navbar -->\\n\\n\', escape=False)\nresponse.write(\'\\n\\n  <script type="text/javascript">\\n    function fun()\\n    {\\n    }\\n\\n    document.addEventListener(\\\'DOMContentLoaded\\\', function() {\\n    \\t\', escape=False)\nrequest_uri = URL(args=request.args, vars=request.vars, host=True)\nresponse.write(\'\\n    \\tvar url = "\', escape=False)\nresponse.write(request_uri)\nresponse.write(\'";\\n    \\tif (url.match("bad_reviews")){\\n    \\t\\tvar c=document.getElementById("sub2");\\n    \\t\\tc.className="item active";    \\t\\t\\t\\n    \\t}\\n    \\telse if(url.match("good_reviews")) {\\n    \\t\\tvar c=document.getElementById("sub1");\\n    \\t\\tc.className="item active";\\n    \\t}\\n    \\telse if(url.match("features")){\\n    \\t\\tvar c=document.getElementById("sub3");\\n    \\t\\tc.className="item active";\\n    \\t}\\n    \\telse{\\n    \\t\\tvar c=document.getElementById("sub0");\\n    \\t\\tc.className="item active";\\n    \\t}\\n   \\t// your code here\\n\\t}, false);\\n  </script>\\n\\n<div class="navigator" style="padding-left:0.5cm;">\\n\\t<p style="color: blue;">\\n\\t\\t\', escape=False)\nif user=="None":\n    response.write(\'\\n\\t\\t<a href="\', escape=False)\n    response.write(URL(\'index\'))\n    response.write(\'">Home</a>\\n\\t \\t<a>>></a>\\n\\t\\t<a href="\', escape=False)\n    response.write(URL(\'products\', vars=dict(manufacturer=a)))\n    response.write(\'">\', escape=False)\n    response.write(a)\n    response.write(\'</a>\\n\\t \\t<a>>></a>\\n\\t \\t\', escape=False)\nelse:\n    response.write(\'\\t\\n\\t\\t<a href="\', escape=False)\n    response.write(URL(\'index\', vars=dict(user=request.vars[\'user\'])))\n    response.write(\'">Home</a>\\n\\t \\t<a>>></a>\\n\\t\\t<a href="\', escape=False)\n    response.write(URL(\'products\', vars=dict(manufacturer=a, user=request.vars[\'user\'])))\n    response.write(\'">\', escape=False)\n    response.write(a)\n    response.write(\'</a>\\n\\t \\t<a>>></a>\\n\\t \\t\', escape=False)\n    pass\nresponse.write(\'\\n\\t\\t<a href="#">\', escape=False)\nresponse.write(b.strip(\',\'))\nresponse.write(\'</a>\\n\\t</p>\\n</div>\\n\\n<div class="row">\\n\\t<div class="span6">\\n\\t<br/>\\n\\t\\t<img class="change" id="0" height="10" src=\', escape=False)\nresponse.write(src)\nresponse.write(\' onclick=fun()>\\n\\t</div>\\n\\t<div class="span6">\\n\\t\\t<center>\\n\\t\\t<h2 style="vertical-align:middle;">\', escape=False)\nresponse.write(b.strip(\',\'))\nresponse.write(\'</h2>\\n\\t\\t</center>\\n\\t\\t\\n\\t</div>\\n</div>\\n\\n<div class="tabbable">\\n\\t<ul class="nav nav-tabs-m" >\\n\\t\\t\', escape=False)\nif user=="None":\n    response.write(\'\\n\\t\\t<li class="item" id="sub0" onclick=changeToActive(this)>\\n\\t\\t\\t<a id="viTabs_0" style="border-top:1px solid #DDDDDD;" href="\', escape=False)\n    response.write(URL(\'specifications\', vars=dict(manufacturer=a, phone=b)))\n    response.write(\'">Specifications</a>\\n\\t\\t</li>\\n\\t\\t<li class="item" id="sub1" onclick=changeToActive(this)>\\n\\t\\t\\t<a id="viTabs_1" style="border-top:1px solid #DDDDDD;" href="\', escape=False)\n    response.write(URL(\'good_reviews\', vars=dict(manufacturer=a, phone=b)))\n    response.write(\'">Good Reviews</a>\\n\\t\\t</li>\\n\\t\\t<li class="item" id="sub2" onclick=changeToActive(this)>\\n\\t\\t\\t<a id="viTabs_2" style="border-top:1px solid #DDDDDD;" href="\', escape=False)\n    response.write(URL(\'bad_reviews\', vars=dict(manufacturer=a, phone=b)))\n    response.write(\'">Bad Reviews</a>\\n\\t\\t</li>\\n\\t\\t<li class="item" id="sub3" onclick=changeToActive(this)>\\n\\t\\t\\t<a id="viTabs_3" style="border-top:1px solid #DDDDDD;" href="\', escape=False)\n    response.write(URL(\'features\', vars=dict(manufacturer=a, phone=b)))\n    response.write(\'">Features</a>\\n\\t\\t</li>\\n\\t\\t\', escape=False)\nelse:\n    response.write(\'\\n\\t\\t<li class="item" id="sub0" onclick=changeToActive(this)>\\n\\t\\t\\t<a id="viTabs_0" style="border-top:1px solid #DDDDDD;" href="\', escape=False)\n    response.write(URL(\'specifications\', vars=dict(manufacturer=a, user=request.vars[\'user\'], phone=b)))\n    response.write(\'">Specifications</a>\\n\\t\\t</li>\\n\\t\\t<li class="item" id="sub1" onclick=changeToActive(this)>\\n\\t\\t\\t<a id="viTabs_1" style="border-top:1px solid #DDDDDD;" href="\', escape=False)\n    response.write(URL(\'good_reviews\', vars=dict(manufacturer=a, user=request.vars[\'user\'], phone=b)))\n    response.write(\'">Good Reviews</a>\\n\\t\\t</li>\\n\\t\\t<li class="item" id="sub2" onclick=changeToActive(this)>\\n\\t\\t\\t<a id="viTabs_2" style="border-top:1px solid #DDDDDD;" href="\', escape=False)\n    response.write(URL(\'bad_reviews\', vars=dict(manufacturer=a, user=request.vars[\'user\'], phone=b)))\n    response.write(\'">Bad Reviews</a>\\n\\t\\t</li>\\n\\t\\t<li class="item" id="sub3" onclick=changeToActive(this)>\\n\\t\\t\\t<a id="viTabs_3" style="border-top:1px solid #DDDDDD;" href="\', escape=False)\n    response.write(URL(\'features\', vars=dict(manufacturer=a, user=request.vars[\'user\'], phone=b)))\n    response.write(\'">Features</a>\\n\\t\\t</li>\\n\\t\\t\', escape=False)\n    pass\nresponse.write(\'\\n\\t</ul>\\n\\t<br/>\\n\\t<div class="tab-content-m">\\n\\t\', escape=False)\nresponse.write(\'\\n\\n\', escape=False)\nphone= request.vars[\'phone\']\nresponse.write(\'\\n\\n\', escape=False)\nrows = db(db.phone_id.name==phone).select(db.phone_id.id)\nresponse.write(\'\\n\', escape=False)\nfor r in rows:\n    response.write(\'\\n\', escape=False)\n    id=r.id\n    response.write(\'\\n\', escape=False)\n    pass\nresponse.write(\'\\n\', escape=False)\nrows = db(db.specifications.phone_id==id).select()\nresponse.write(\'\\n\\n\\t\', escape=False)\nfor r in rows:\n    response.write(\'\\n\\t<div class="s_specs_box">\\n\\t\\t<h4 class="htitle">Design</h4>\\n\\t\\t<br/>\\n\\t\\t<ul>\\n\\t\\t\\t<li class="s_lv_1">\\n\\t\\t\\t\\t<strong class=" s_lv_1 "><center>Device type:</center></strong>\\n\\t\\t\\t\\t<ul class=" s_lv_1 ">\\n\\t\\t\\t\\t\\t<li>\', escape=False)\n    response.write(r.DeviceType)\n    response.write(\'</li>\\n\\t\\t\\t\\t</ul>\\n\\t\\t\\t</li>\\n\\t\\t\\t<li class="s_lv_1">\\n\\t\\t\\t\\t<strong class=" s_lv_1 "><center>OS:</center></strong>\\n\\t\\t\\t\\t<ul class=" s_lv_1 ">\\n\\t\\t\\t\\t\\t<li>\', escape=False)\n    response.write(r.OS)\n    response.write(\'</li>\\n\\t\\t\\t\\t</ul>\\n\\t\\t\\t</li>\\n\\t\\t\\t<li class="s_lv_1">\\n\\t\\t\\t\\t<strong class=" s_lv_1 "><center>Dimensions:</center></strong>\\n\\t\\t\\t\\t<ul class=" s_lv_1 ">\\n\\t\\t\\t\\t\\t<li>\', escape=False)\n    response.write(r.Dimensions)\n    response.write(\'</li>\\n\\t\\t\\t\\t</ul>\\n\\t\\t\\t</li><li class="s_lv_1">\\n\\t\\t\\t\\t<strong class=" s_lv_1 "><center>Weight:</center></strong>\\n\\t\\t\\t\\t<ul class=" s_lv_1 ">\\n\\t\\t\\t\\t\\t<li>\', escape=False)\n    response.write(r.Weight)\n    response.write(\'</li>\\n\\t\\t\\t\\t</ul>\\n\\t\\t\\t</li>\\n\\t\\t\\t<li class="s_lv_1">\\n\\t\\t\\t\\t<strong class=" s_lv_1 "><center>Body Material:</center></strong>\\n\\t\\t\\t\\t<ul class=" s_lv_1 ">\\n\\t\\t\\t\\t\\t<li>\', escape=False)\n    response.write(r.BodyMaterial)\n    response.write(\'</li>\\n\\t\\t\\t\\t</ul>\\n\\t\\t\\t</li>\\n\\t\\t</ul>\\n\\t\\t<br/>\\n\\n\\t\\t<h4 class="htitle">Physical Size:</h4>\\n\\t\\t<br/>\\n\\t\\t<ul>\\n\\t\\t\\t<li class="s_lv_1">\\n\\t\\t\\t\\t<strong class=" s_lv_1 "><center>Physical Size:</center></strong>\\n\\t\\t\\t\\t<ul class=" s_lv_1 ">\\n\\t\\t\\t\\t\\t<li>\', escape=False)\n    response.write(r.PhysicalSize)\n    response.write(\'</li>\\n\\t\\t\\t\\t</ul>\\n\\t\\t\\t</li><li class="s_lv_1">\\n\\t\\t\\t\\t<strong class=" s_lv_1 "><center>Resolution:</center></strong>\\n\\t\\t\\t\\t<ul class=" s_lv_1 ">\\n\\t\\t\\t\\t\\t<li>\', escape=False)\n    response.write(r.Resolution)\n    response.write(\'</li>\\n\\t\\t\\t\\t</ul>\\n\\t\\t\\t</li>\\n\\t\\t\\t<li class="s_lv_1">\\n\\t\\t\\t\\t<strong class=" s_lv_1 "><center>Colors:</center></strong>\\n\\t\\t\\t\\t<ul class=" s_lv_1 ">\\n\\t\\t\\t\\t\\t<li>\', escape=False)\n    response.write(r.Colors)\n    response.write(\'</li>\\n\\t\\t\\t\\t</ul>\\n\\t\\t\\t</li>\\n\\t\\t\\t<li class="s_lv_1">\\n\\t\\t\\t\\t<strong class=" s_lv_1 "><center>Features:</center></strong>\\n\\t\\t\\t\\t<ul class=" s_lv_1 ">\\n\\t\\t\\t\\t\\t<li>\', escape=False)\n    response.write(r.Features)\n    response.write(\'</li>\\n\\t\\t\\t\\t</ul>\\n\\t\\t\\t</li>\\n\\t\\t</ul>\\n\\t\\t<br/>\\n\\n\\t\\t<h4>Battery:</h4>\\n\\t\\t<br/>\\n\\t\\t<ul>\\n\\t\\t\\t</li><li class="s_lv_1">\\n\\t\\t\\t\\t<strong class=" s_lv_1 "><center>Capacity:</center></strong>\\n\\t\\t\\t\\t<ul class=" s_lv_1 ">\\n\\t\\t\\t\\t\\t<li>\', escape=False)\n    response.write(r.Capacity)\n    response.write(\'</li>\\n\\t\\t\\t\\t</ul>\\n\\t\\t\\t</li>\\n\\t\\t\\t<li class="s_lv_1">\\n\\t\\t\\t\\t<strong class=" s_lv_1 "><center>StandbyTime:</center></strong>\\n\\t\\t\\t\\t<ul class=" s_lv_1 ">\\n\\t\\t\\t\\t\\t<li>\', escape=False)\n    response.write(r.StandbyTime)\n    response.write(\'</li>\\n\\t\\t\\t\\t</ul>\\n\\t\\t\\t</li>\\n\\t\\t\\t<li class="s_lv_1">\\n\\t\\t\\t\\t<strong class=" s_lv_1 "><center>Talk time:</center></strong>\\n\\t\\t\\t\\t<ul class=" s_lv_1 ">\\n\\t\\t\\t\\t\\t<li>\', escape=False)\n    response.write(r.Talktime)\n    response.write(\'</li>\\n\\t\\t\\t\\t</ul>\\n\\t\\t\\t</li>\\n\\t\\t\\t<li class="s_lv_1">\\n\\t\\t\\t\\t<strong class=" s_lv_1 "><center>Wireless Charging:</center></strong>\\n\\t\\t\\t\\t<ul class=" s_lv_1 ">\\n\\t\\t\\t\\t\\t<li>\', escape=False)\n    response.write(r.WirelessCharging)\n    response.write(\'</li>\\n\\t\\t\\t\\t</ul>\\n\\t\\t\\t</li>\\n\\t\\t</ul>\\n\\t\\t<br/>\\n\\n\\t\\t<h4>Technology:</h4>\\n\\t\\t<br/>\\n\\t\\t<ul>\\n\\t\\t\\t<li class="s_lv_1">\\n\\t\\t\\t\\t<strong class=" s_lv_1 "><center>UMTS:</center></strong>\\n\\t\\t\\t\\t<ul class=" s_lv_1 ">\\n\\t\\t\\t\\t\\t<li>\', escape=False)\n    response.write(r.UMTS)\n    response.write(\'</li>\\n\\t\\t\\t\\t</ul>\\n\\t\\t\\t<li class="s_lv_1">\\n\\t\\t\\t\\t<strong class=" s_lv_1 "><center>GSM:</center></strong>\\n\\t\\t\\t\\t<ul class=" s_lv_1 ">\\n\\t\\t\\t\\t\\t<li>\', escape=False)\n    response.write(r.GSM)\n    response.write(\'</li>\\n\\t\\t\\t\\t</ul>\\n\\t\\t\\t</li>\\n\\t\\t\\t<li class="s_lv_1">\\n\\t\\t\\t\\t<strong class=" s_lv_1 "><center>Data:</center></strong>\\n\\t\\t\\t\\t<ul class=" s_lv_1 ">\\n\\t\\t\\t\\t\\t<li>\', escape=False)\n    response.write(r.Datas)\n    response.write(\'</li>\\n\\t\\t\\t\\t</ul>\\n\\t\\t\\t</li>\\n\\t\\t\\t<li class="s_lv_1">\\n\\t\\t\\t\\t<strong class=" s_lv_1 "><center>Navigations:</center></strong>\\n\\t\\t\\t\\t<ul class=" s_lv_1 ">\\n\\t\\t\\t\\t\\t<li>\', escape=False)\n    response.write(r.Navigations)\n    response.write(\'</li>\\n\\t\\t\\t\\t</ul>\\n\\t\\t\\t</li>\\n\\t\\t\\t<li class="s_lv_1">\\n\\t\\t\\t\\t<strong class=" s_lv_1 "><center>Micro SIM:</center></strong>\\n\\t\\t\\t\\t<ul class=" s_lv_1 ">\\n\\t\\t\\t\\t\\t<li>\', escape=False)\n    response.write(r.MicroSim)\n    response.write(\'</li>\\n\\t\\t\\t\\t</ul>\\n\\t\\t\\t</li>\\n\\t\\t</ul>\\n\\t\\t<br/>\\n\\n\\t\\t<h4>Multimedia:</h4>\\n\\t\\t<br/>\\n\\t\\t<ul>\\n\\t\\t\\t</li><li class="s_lv_1">\\n\\t\\t\\t\\t<strong class=" s_lv_1 "><center>Accessories:</center></strong>\\n\\t\\t\\t\\t<ul class=" s_lv_1 ">\\n\\t\\t\\t\\t\\t<li>\', escape=False)\n    response.write(r.Accessories)\n    response.write(\'</li>\\n\\t\\t\\t\\t</ul>\\n\\t\\t\\t<li class="s_lv_1">\\n\\t\\t\\t\\t<strong class=" s_lv_1 "><center>Notifications:</center></strong>\\n\\t\\t\\t\\t<ul class=" s_lv_1 ">\\n\\t\\t\\t\\t\\t<li>\', escape=False)\n    response.write(r.Notifications)\n    response.write(\'</li>\\n\\t\\t\\t\\t</ul>\\n\\t\\t\\t</li>\\n\\t\\t\\t<li class="s_lv_1">\\n\\t\\t\\t\\t<strong class=" s_lv_1 "><center>Speakers:</center></strong>\\n\\t\\t\\t\\t<ul class=" s_lv_1 ">\\n\\t\\t\\t\\t\\t<li>\', escape=False)\n    response.write(r.Speakers)\n    response.write(\'</li>\\n\\t\\t\\t\\t</ul>\\n\\t\\t\\t</li>\\n\\t\\t\\t<li class="s_lv_1">\\n\\t\\t\\t\\t<strong class=" s_lv_1 "><center>Youtube Player:</center></strong>\\n\\t\\t\\t\\t<ul class=" s_lv_1 ">\\n\\t\\t\\t\\t\\t<li>\', escape=False)\n    response.write(r.YoutubePlayer)\n    response.write(\'</li>\\n\\t\\t\\t\\t</ul>\\n\\t\\t\\t</li>\\n\\t\\t\\t<li class="s_lv_1">\\n\\t\\t\\t\\t<strong class=" s_lv_1 "><center>Other:</center></strong>\\n\\t\\t\\t\\t<ul class=" s_lv_1 ">\\n\\t\\t\\t\\t\\t<li>\', escape=False)\n    response.write(r.Other)\n    response.write(\'</li>\\n\\t\\t\\t\\t</ul>\\n\\t\\t\\t</li>\\n\\t\\t</ul>\\n\\t</div>\\n\\t\', escape=False)\n    pass\nresponse.write(\'\\n\\n\', escape=False)\nresponse.write(\'\\n\\t</div>\\n</div>\\n\\n\', escape=False)\nresponse.write(\'\\n\\n  <div id="footer">\\n    <ul>\\n      <li id="loser">\\n        <ul>\\n          <li>\\n            <h4>Navigation: </h4>\\n          </li>          \\n          <li>\\n            <a href="">Top Phones</a>\\n          </li>\\n          <li>\\n            <a href="">Apple</a>\\n          </li>\\n          <li>\\n            <a href="">HTC</a>\\n          </li>\\n          <li>\\n            <a href="">Nexus</a>\\n          </li>\\n          <li>\\n            <a href="">Nokia</a>\\n          </li>\\n          <li>\\n            <a href="">Samsung</a>\\n          </li>\\n          <li>\\n            <a href="">Sony</a>\\n          </li>\\n        </ul>\\n      </li>\\n      <li id="loser">\\n        <ul>\\n          <li>\\n            <h4>Follow Us:</h4>\\n          </li>\\n          <li>\\n            <img src=\', escape=False)\nresponse.write(URL(\'static\',\'images/facebook.png\'))\nresponse.write(\'/>\\n            <a href="">Facebook</a>\\n          </li>\\n          <li>\\n            <img src=\', escape=False)\nresponse.write(URL(\'static\',\'images/twitter.png\'))\nresponse.write(\'/>\\n            <a href="">Twitter</a>\\n          </li>\\n          <li>\\n            <img src=\', escape=False)\nresponse.write(URL(\'static\',\'images/gplus-32.png\'))\nresponse.write(\'/>\\n            <a href="">Google Plus</a>\\n          </li>\\n          <li>\\n            <img src=\', escape=False)\nresponse.write(URL(\'static\',\'images/gplus-32.png\'))\nresponse.write(\'/>\\n            <a href="">Some More</a>\\n          </li>\\n          <li>\\n            <img src=\', escape=False)\nresponse.write(URL(\'static\',\'images/gplus-32.png\'))\nresponse.write(\'/>\\n            <a href="">Some More</a>\\n          </li>\\n        </ul>\\n      </li>\\n      <li id="loser">\\n        <ul>\\n          <li>\\n            <h4>Other Links: </h4>\\n          </li>          \\n          <li>\\n            <a href="">About Us</a>\\n          </li>\\n          <li>\\n            <a href="">Contact Us</a>\\n          </li>\\n          <li>\\n            <a href="">Terms of Service</a>\\n          </li>\\n          <li>\\n            <a href="">Blog</a>\\n          </li>\\n          <li>\\n            <a href="">Team </a>\\n          </li>\\n          <li>\\n            <a href="">Partners</a>\\n          </li>\\n          <li>\\n            <a href="">Sponsors</a>\\n          </li>\\n        </ul>\\n      </li>\\n    </ul>\\n  </div>\\n\\n  <script type="text/javascript">\\n\\n    function makeActive(){\\n      id=\', escape=False)\nresponse.write(request.vars[\'manufacturer\'])\nresponse.write(\'\\n      document.write(id)\\n      var loader = document.getElementById(val);\\n      loader.className = "active";\\n    }\\n\\n  </script>\\n\\n  <!-- The javascript =============================================\\n       (Placed at the end of the document so the pages load faster) -->\\n  <script src="\', escape=False)\nresponse.write(URL(\'static\',\'js/bootstrap.min.js\'))\nresponse.write(\'"></script>\\n  <script src="\', escape=False)\nresponse.write(URL(\'static\',\'js/web2py_bootstrap.js\'))\nresponse.write(\'"></script>\\n  \\n  \', escape=False)\nif response.google_analytics_id:\n    response.write(\'\\n  <script src="\', escape=False)\n    response.write(URL(\'static\',\'js/analytics.min.js\'))\n    response.write(\'"></script>\\n  <script type="text/javascript">\\n  analytics.initialize({\\n    \\\'Google Analytics\\\':{trackingId:\\\'\', escape=False)\n    response.write(response.google_analytics_id)\n    response.write("\'} \\n  });</script>\\n  ", escape=False)\n    pass\nresponse.write(\'\\n  <script src="\', escape=False)\nresponse.write(URL(\'static\',\'js/share.js\',vars=dict(static=URL(\'static\',\'images\'))))\nresponse.write(\'"></script>\\n  <script src="\', escape=False)\nresponse.write(URL(\'static\',\'js/jsapi.js\'))\nresponse.write(\'"></script>\\n\\n  <script type="text/javascript">\\n      google.load("visualization", "1", {packages:["corechart"]});\\n      google.setOnLoadCallback(drawChart);\\n      function drawChart() {\\n        \', escape=False)\nrows = db(db.phone_id.id==1).select()\nresponse.write(\'\\n        \', escape=False)\nif len(rows):\n    response.write(\'\\n          \', escape=False)\n    for r in rows:\n        response.write("\\n          var data = google.visualization.arrayToDataTable([\\n            [\'Type\', \'No. of Reviews\'],\\n            [\'Good\',     ", escape=False)\n        response.write(r.good)\n        response.write("],\\n            [\'Bad\',      ", escape=False)\n        response.write(r.bad)\n        response.write("],\\n          ]);\\n\\n          var options = {\\n            title: \'Reviews\',\\n            is3D: true,\\n          };\\n\\n          var chart = new google.visualization.PieChart(document.getElementById(\'piechart_3d\'));\\n          chart.draw(data, options);\\n          ", escape=False)\n        pass\n    response.write(\'\\n          \', escape=False)\n    pass\nresponse.write(\'\\n      }\\n  </script>\\n</body>\\n</html>\', escape=False)'
p7
sS'snapshot'
p8
(dp9
S'exception'
p10
(dp11
S'__hash__'
p12
S"<method-wrapper '__hash__' of exceptions.NameError object>"
p13
sS'__setattr__'
p14
S"<method-wrapper '__setattr__' of exceptions.NameError object>"
p15
sS'__reduce_ex__'
p16
S'<built-in method __reduce_ex__ of exceptions.NameError object>'
p17
sS'__getslice__'
p18
S"<method-wrapper '__getslice__' of exceptions.NameError object>"
p19
sS'__getitem__'
p20
S"<method-wrapper '__getitem__' of exceptions.NameError object>"
p21
sS'__setstate__'
p22
S'<built-in method __setstate__ of exceptions.NameError object>'
p23
sS'__reduce__'
p24
S'<built-in method __reduce__ of exceptions.NameError object>'
p25
sS'__str__'
p26
S"<method-wrapper '__str__' of exceptions.NameError object>"
p27
sS'__format__'
p28
S'<built-in method __format__ of exceptions.NameError object>'
p29
sS'__getattribute__'
p30
S"<method-wrapper '__getattribute__' of exceptions.NameError object>"
p31
sS'__class__'
p32
S"<type 'exceptions.NameError'>"
p33
sS'__unicode__'
p34
S'<built-in method __unicode__ of exceptions.NameError object>'
p35
sS'__delattr__'
p36
S"<method-wrapper '__delattr__' of exceptions.NameError object>"
p37
sS'__subclasshook__'
p38
S'<built-in method __subclasshook__ of type object>'
p39
sS'__repr__'
p40
S"<method-wrapper '__repr__' of exceptions.NameError object>"
p41
sS'args'
p42
S'("name \'a\' is not defined",)'
p43
sS'__dict__'
p44
S'{}'
p45
sS'__sizeof__'
p46
S'<built-in method __sizeof__ of exceptions.NameError object>'
p47
sS'__doc__'
p48
S"'Name not found globally.'"
p49
sS'__init__'
p50
S"<method-wrapper '__init__' of exceptions.NameError object>"
p51
sS'__new__'
p52
S'<built-in method __new__ of type object>'
p53
ssS'evalue'
p54
S"name 'a' is not defined"
p55
sS'request'
p56
cgluon.html
XML_unpickle
p57
(S'sha\x00\x00<div><table><tr><td style="font-weight:bold;vertical-align:top;">ajax</td><td style="vertical-align:top;">:</td><td><div>False</div></td></tr><tr><td style="font-weight:bold;vertical-align:top;">application</td><td style="vertical-align:top;">:</td><td><div>PhoneReviews</div></td></tr><tr><td style="font-weight:bold;vertical-align:top;">args</td><td style="vertical-align:top;">:</td><td><div><table></table></div></td></tr><tr><td style="font-weight:bold;vertical-align:top;">cid</td><td style="vertical-align:top;">:</td><td><div>None</div></td></tr><tr><td style="font-weight:bold;vertical-align:top;">client</td><td style="vertical-align:top;">:</td><td><div>127.0.0.1</div></td></tr><tr><td style="font-weight:bold;vertical-align:top;">controller</td><td style="vertical-align:top;">:</td><td><div>default</div></td></tr><tr><td style="font-weight:bold;vertical-align:top;">cookies</td><td style="vertical-align:top;">:</td><td><div><table><tr><td style="font-weight:bold;vertical-align:top;">registered</td><td style="vertical-align:top;">:</td><td><div>yes<table><tr><td style="font-weight:bold;vertical-align:top;">comment</td><td style="vertical-align:top;">:</td><td><div></div></td></tr><tr><td style="font-weight:bold;vertical-align:top;">domain</td><td style="vertical-align:top;">:</td><td><div></div></td></tr><tr><td style="font-weight:bold;vertical-align:top;">expires</td><td style="vertical-align:top;">:</td><td><div></div></td></tr><tr><td style="font-weight:bold;vertical-align:top;">httponly</td><td style="vertical-align:top;">:</td><td><div></div></td></tr><tr><td style="font-weight:bold;vertical-align:top;">max-age</td><td style="vertical-align:top;">:</td><td><div></div></td></tr><tr><td style="font-weight:bold;vertical-align:top;">path</td><td style="vertical-align:top;">:</td><td><div></div></td></tr><tr><td style="font-weight:bold;vertical-align:top;">secure</td><td style="vertical-align:top;">:</td><td><div></div></td></tr><tr><td style="font-weight:bold;vertical-align:top;">version</td><td style="vertical-align:top;">:</td><td><div></div></td></tr></table></div></td></tr><tr><td style="font-weight:bold;vertical-align:top;">session_id_admin</td><td style="vertical-align:top;">:</td><td><div>127.0.0.1-07dc276b-06b7-45cb-9394-4b39672f2bdb<table><tr><td style="font-weight:bold;vertical-align:top;">comment</td><td style="vertical-align:top;">:</td><td><div></div></td></tr><tr><td style="font-weight:bold;vertical-align:top;">domain</td><td style="vertical-align:top;">:</td><td><div></div></td></tr><tr><td style="font-weight:bold;vertical-align:top;">expires</td><td style="vertical-align:top;">:</td><td><div></div></td></tr><tr><td style="font-weight:bold;vertical-align:top;">httponly</td><td style="vertical-align:top;">:</td><td><div></div></td></tr><tr><td style="font-weight:bold;vertical-align:top;">max-age</td><td style="vertical-align:top;">:</td><td><div></div></td></tr><tr><td style="font-weight:bold;vertical-align:top;">path</td><td style="vertical-align:top;">:</td><td><div></div></td></tr><tr><td style="font-weight:bold;vertical-align:top;">secure</td><td style="vertical-align:top;">:</td><td><div></div></td></tr><tr><td style="font-weight:bold;vertical-align:top;">version</td><td style="vertical-align:top;">:</td><td><div></div></td></tr></table></div></td></tr><tr><td style="font-weight:bold;vertical-align:top;">session_id_phonereviews</td><td style="vertical-align:top;">:</td><td><div>127.0.0.1-6823283c-fb41-4d6e-abd4-3eb482e7b44c<table><tr><td style="font-weight:bold;vertical-align:top;">comment</td><td style="vertical-align:top;">:</td><td><div></div></td></tr><tr><td style="font-weight:bold;vertical-align:top;">domain</td><td style="vertical-align:top;">:</td><td><div></div></td></tr><tr><td style="font-weight:bold;vertical-align:top;">expires</td><td style="vertical-align:top;">:</td><td><div></div></td></tr><tr><td style="font-weight:bold;vertical-align:top;">httponly</td><td style="vertical-align:top;">:</td><td><div></div></td></tr><tr><td style="font-weight:bold;vertical-align:top;">max-age</td><td style="vertical-align:top;">:</td><td><div></div></td></tr><tr><td style="font-weight:bold;vertical-align:top;">path</td><td style="vertical-align:top;">:</td><td><div></div></td></tr><tr><td style="font-weight:bold;vertical-align:top;">secure</td><td style="vertical-align:top;">:</td><td><div></div></td></tr><tr><td style="font-weight:bold;vertical-align:top;">version</td><td style="vertical-align:top;">:</td><td><div></div></td></tr></table></div></td></tr><tr><td style="font-weight:bold;vertical-align:top;">session_id_welcome</td><td style="vertical-align:top;">:</td><td><div>127.0.0.1-81639c53-5c0e-4015-a2c1-f97bf8c9426b<table><tr><td style="font-weight:bold;vertical-align:top;">comment</td><td style="vertical-align:top;">:</td><td><div></div></td></tr><tr><td style="font-weight:bold;vertical-align:top;">domain</td><td style="vertical-align:top;">:</td><td><div></div></td></tr><tr><td style="font-weight:bold;vertical-align:top;">expires</td><td style="vertical-align:top;">:</td><td><div></div></td></tr><tr><td style="font-weight:bold;vertical-align:top;">httponly</td><td style="vertical-align:top;">:</td><td><div></div></td></tr><tr><td style="font-weight:bold;vertical-align:top;">max-age</td><td style="vertical-align:top;">:</td><td><div></div></td></tr><tr><td style="font-weight:bold;vertical-align:top;">path</td><td style="vertical-align:top;">:</td><td><div></div></td></tr><tr><td style="font-weight:bold;vertical-align:top;">secure</td><td style="vertical-align:top;">:</td><td><div></div></td></tr><tr><td style="font-weight:bold;vertical-align:top;">version</td><td style="vertical-align:top;">:</td><td><div></div></td></tr></table></div></td></tr></table></div></td></tr><tr><td style="font-weight:bold;vertical-align:top;">env</td><td style="vertical-align:top;">:</td><td><div><table><tr><td style="font-weight:bold;vertical-align:top;">HTTP_ACCEPT</td><td style="vertical-align:top;">:</td><td><div>text/html,application/xhtml+xml,application/xml;q=0.9,*/*;q=0.8</div></td></tr><tr><td style="font-weight:bold;vertical-align:top;">HTTP_ACCEPT_ENCODING</td><td style="vertical-align:top;">:</td><td><div>gzip, deflate</div></td></tr><tr><td style="font-weight:bold;vertical-align:top;">HTTP_ACCEPT_LANGUAGE</td><td style="vertical-align:top;">:</td><td><div>en-US,en;q=0.5</div></td></tr><tr><td style="font-weight:bold;vertical-align:top;">HTTP_CACHE_CONTROL</td><td style="vertical-align:top;">:</td><td><div>max-age=0</div></td></tr><tr><td style="font-weight:bold;vertical-align:top;">HTTP_CONNECTION</td><td style="vertical-align:top;">:</td><td><div>keep-alive</div></td></tr><tr><td style="font-weight:bold;vertical-align:top;">HTTP_COOKIE</td><td style="vertical-align:top;">:</td><td><div>registered=yes; session_id_welcome=127.0.0.1-81639c53-5c0e-4015-a2c1-f97bf8c9426b; session_id_phonereviews=127.0.0.1-6823283c-fb41-4d6e-abd4-3eb482e7b44c; session_id_admin=127.0.0.1-07dc276b-06b7-45cb-9394-4b39672f2bdb</div></td></tr><tr><td style="font-weight:bold;vertical-align:top;">HTTP_HOST</td><td style="vertical-align:top;">:</td><td><div>127.0.0.1:8000</div></td></tr><tr><td style="font-weight:bold;vertical-align:top;">HTTP_REFERER</td><td style="vertical-align:top;">:</td><td><div>http://127.0.0.1:8000/PhoneReviews/default/products?manufacturer=Nexus&amp;user=dmn</div></td></tr><tr><td style="font-weight:bold;vertical-align:top;">HTTP_USER_AGENT</td><td style="vertical-align:top;">:</td><td><div>Mozilla/5.0 (X11; Ubuntu; Linux i686; rv:27.0) Gecko/20100101 Firefox/27.0</div></td></tr><tr><td style="font-weight:bold;vertical-align:top;">PATH_INFO</td><td style="vertical-align:top;">:</td><td><div>/PhoneReviews/default/specifications</div></td></tr><tr><td style="font-weight:bold;vertical-align:top;">QUERY_STRING</td><td style="vertical-align:top;">:</td><td><div>manufacturer=Nexus&amp;phone=Google+Nexus+5&amp;user=dmn</div></td></tr><tr><td style="font-weight:bold;vertical-align:top;">REMOTE_ADDR</td><td style="vertical-align:top;">:</td><td><div>127.0.0.1</div></td></tr><tr><td style="font-weight:bold;vertical-align:top;">REMOTE_PORT</td><td style="vertical-align:top;">:</td><td><div>45788</div></td></tr><tr><td style="font-weight:bold;vertical-align:top;">REQUEST_METHOD</td><td style="vertical-align:top;">:</td><td><div>GET</div></td></tr><tr><td style="font-weight:bold;vertical-align:top;">SCRIPT_NAME</td><td style="vertical-align:top;">:</td><td><div></div></td></tr><tr><td style="font-weight:bold;vertical-align:top;">SERVER_NAME</td><td style="vertical-align:top;">:</td><td><div>darshan</div></td></tr><tr><td style="font-weight:bold;vertical-align:top;">SERVER_PORT</td><td style="vertical-align:top;">:</td><td><div>8000</div></td></tr><tr><td style="font-weight:bold;vertical-align:top;">SERVER_PROTOCOL</td><td style="vertical-align:top;">:</td><td><div>HTTP/1.1</div></td></tr><tr><td style="font-weight:bold;vertical-align:top;">SERVER_SOFTWARE</td><td style="vertical-align:top;">:</td><td><div>Rocket 1.2.6</div></td></tr><tr><td style="font-weight:bold;vertical-align:top;">app_folders</td><td style="vertical-align:top;">:</td><td><div>set([&#x27;/home/darshan-ubuntu/Project/web2py/applications/admin/&#x27;, &#x27;/home/darshan-ubuntu/Project/web2py/applications/welcome/&#x27;, &#x27;/home/darshan-ubuntu/Project/web2py/applications/PhoneReviews/&#x27;])</div></td></tr><tr><td style="font-weight:bold;vertical-align:top;">applications_parent</td><td style="vertical-align:top;">:</td><td><div>/home/darshan-ubuntu/Project/web2py</div></td></tr><tr><td style="font-weight:bold;vertical-align:top;">cmd_args</td><td style="vertical-align:top;">:</td><td><div><table></table></div></td></tr><tr><td style="font-weight:bold;vertical-align:top;">cmd_options</td><td style="vertical-align:top;">:</td><td><div>&lt;Values at 0xa3982cc: {&#x27;verbose&#x27;: False, &#x27;ip&#x27;: &#x27;127.0.0.1&#x27;, &#x27;debuglevel&#x27;: 30, &#x27;with_scheduler&#x27;: False, &#x27;ips&#x27;: [&#x27;127.0.1.1&#x27;], &#x27;shutdown_timeout&#x27;: 5, &#x27;taskbar&#x27;: False, &#x27;with_coverage&#x27;: False, &#x27;scheduler_groups&#x27;: None, &#x27;port&#x27;: 8000, &#x27;maxthreads&#x27;: None, &#x27;softcron&#x27;: False, &#x27;server_name&#x27;: &#x27;darshan&#x27;, &#x27;bpython&#x27;: False, &#x27;nogui&#x27;: False, &#x27;pid_filename&#x27;: &#x27;httpserver.pid&#x27;, &#x27;extcron&#x27;: False, &#x27;runcron&#x27;: False, &#x27;run_system_tests&#x27;: False, &#x27;test&#x27;: None, &#x27;folder&#x27;: &#x27;/home/darshan-ubuntu/Project/web2py&#x27;, &#x27;config&#x27;: &#x27;&#x27;, &#x27;minthreads&#x27;: None, &#x27;shell&#x27;: None, &#x27;run&#x27;: &#x27;&#x27;, &#x27;log_filename&#x27;: &#x27;httpserver.log&#x27;, &#x27;profiler_dir&#x27;: None, &#x27;args&#x27;: [&#x27;&#x27;], &#x27;socket_timeout&#x27;: 5, &#x27;ssl_ca_certificate&#x27;: None, &#x27;scheduler&#x27;: None, &#x27;interfaces&#x27;: None, &#x27;ssl_private_key&#x27;: &#x27;&#x27;, &#x27;gae&#x27;: None, &#x27;password&#x27;: &#x27;&lt;ask&gt;&#x27;, &#x27;request_queue_size&#x27;: 5, &#x27;ssl_certificate&#x27;: &#x27;&#x27;, &#x27;cronjob&#x27;: False, &#x27;numthreads&#x27;: None, &#x27;quiet&#x27;: False, &#x27;import_models&#x27;: False, &#x27;timeout&#x27;: 10, &#x27;plain&#x27;: False, &#x27;nobanner&#x27;: False}&gt;</div></td></tr><tr><td style="font-weight:bold;vertical-align:top;">db_sessions</td><td style="vertical-align:top;">:</td><td><div>set([])</div></td></tr><tr><td style="font-weight:bold;vertical-align:top;">debugging</td><td style="vertical-align:top;">:</td><td><div>False</div></td></tr><tr><td style="font-weight:bold;vertical-align:top;">gluon_parent</td><td style="vertical-align:top;">:</td><td><div>/home/darshan-ubuntu/Project/web2py</div></td></tr><tr><td style="font-weight:bold;vertical-align:top;">http_accept</td><td style="vertical-align:top;">:</td><td><div>text/html,application/xhtml+xml,application/xml;q=0.9,*/*;q=0.8</div></td></tr><tr><td style="font-weight:bold;vertical-align:top;">http_accept_encoding</td><td style="vertical-align:top;">:</td><td><div>gzip, deflate</div></td></tr><tr><td style="font-weight:bold;vertical-align:top;">http_accept_language</td><td style="vertical-align:top;">:</td><td><div>en-US,en;q=0.5</div></td></tr><tr><td style="font-weight:bold;vertical-align:top;">http_cache_control</td><td style="vertical-align:top;">:</td><td><div>max-age=0</div></td></tr><tr><td style="font-weight:bold;vertical-align:top;">http_connection</td><td style="vertical-align:top;">:</td><td><div>keep-alive</div></td></tr><tr><td style="font-weight:bold;vertical-align:top;">http_cookie</td><td style="vertical-align:top;">:</td><td><div>registered=yes; session_id_welcome=127.0.0.1-81639c53-5c0e-4015-a2c1-f97bf8c9426b; session_id_phonereviews=127.0.0.1-6823283c-fb41-4d6e-abd4-3eb482e7b44c; session_id_admin=127.0.0.1-07dc276b-06b7-45cb-9394-4b39672f2bdb</div></td></tr><tr><td style="font-weight:bold;vertical-align:top;">http_host</td><td style="vertical-align:top;">:</td><td><div>127.0.0.1:8000</div></td></tr><tr><td style="font-weight:bold;vertical-align:top;">http_referer</td><td style="vertical-align:top;">:</td><td><div>http://127.0.0.1:8000/PhoneReviews/default/products?manufacturer=Nexus&amp;user=dmn</div></td></tr><tr><td style="font-weight:bold;vertical-align:top;">http_user_agent</td><td style="vertical-align:top;">:</td><td><div>Mozilla/5.0 (X11; Ubuntu; Linux i686; rv:27.0) Gecko/20100101 Firefox/27.0</div></td></tr><tr><td style="font-weight:bold;vertical-align:top;">is_jython</td><td style="vertical-align:top;">:</td><td><div>False</div></td></tr><tr><td style="font-weight:bold;vertical-align:top;">is_pypy</td><td style="vertical-align:top;">:</td><td><div>False</div></td></tr><tr><td style="font-weight:bold;vertical-align:top;">is_source</td><td style="vertical-align:top;">:</td><td><div>True</div></td></tr><tr><td style="font-weight:bold;vertical-align:top;">local_hosts</td><td style="vertical-align:top;">:</td><td><div><table><tr><td><div>darshan</div></td></tr><tr><td><div>::1</div></td></tr><tr><td><div>127.0.1.1</div></td></tr><tr><td><div>::ffff:127.0.0.1</div></td></tr><tr><td><div>127.0.0.1</div></td></tr></table></div></td></tr><tr><td style="font-weight:bold;vertical-align:top;">path_info</td><td style="vertical-align:top;">:</td><td><div>/PhoneReviews/default/specifications</div></td></tr><tr><td style="font-weight:bold;vertical-align:top;">query_string</td><td style="vertical-align:top;">:</td><td><div>manufacturer=Nexus&amp;phone=Google+Nexus+5&amp;user=dmn</div></td></tr><tr><td style="font-weight:bold;vertical-align:top;">remote_addr</td><td style="vertical-align:top;">:</td><td><div>127.0.0.1</div></td></tr><tr><td style="font-weight:bold;vertical-align:top;">remote_port</td><td style="vertical-align:top;">:</td><td><div>45788</div></td></tr><tr><td style="font-weight:bold;vertical-align:top;">request_method</td><td style="vertical-align:top;">:</td><td><div>GET</div></td></tr><tr><td style="font-weight:bold;vertical-align:top;">request_uri</td><td style="vertical-align:top;">:</td><td><div>/PhoneReviews/default/specifications?manufacturer=Nexus&amp;phone=Google+Nexus+5&amp;user=dmn</div></td></tr><tr><td style="font-weight:bold;vertical-align:top;">script_name</td><td style="vertical-align:top;">:</td><td><div></div></td></tr><tr><td style="font-weight:bold;vertical-align:top;">server_name</td><td style="vertical-align:top;">:</td><td><div>darshan</div></td></tr><tr><td style="font-weight:bold;vertical-align:top;">server_port</td><td style="vertical-align:top;">:</td><td><div>8000</div></td></tr><tr><td style="font-weight:bold;vertical-align:top;">server_protocol</td><td style="vertical-align:top;">:</td><td><div>HTTP/1.1</div></td></tr><tr><td style="font-weight:bold;vertical-align:top;">server_software</td><td style="vertical-align:top;">:</td><td><div>Rocket 1.2.6</div></td></tr><tr><td style="font-weight:bold;vertical-align:top;">web2py_path</td><td style="vertical-align:top;">:</td><td><div>/home/darshan-ubuntu/Project/web2py</div></td></tr><tr><td style="font-weight:bold;vertical-align:top;">web2py_version</td><td style="vertical-align:top;">:</td><td><div>2.9.5-trunk+timestamp.2014.04.02.09.18.42</div></td></tr><tr><td style="font-weight:bold;vertical-align:top;">wsgi.errors</td><td style="vertical-align:top;">:</td><td><div>&lt;open file &#x27;&lt;stderr&gt;&#x27;, mode &#x27;w&#x27; at 0xb75590d0&gt;</div></td></tr><tr><td style="font-weight:bold;vertical-align:top;">wsgi.file_wrapper</td><td style="vertical-align:top;">:</td><td><div>&lt;class wsgiref.util.FileWrapper at 0xa5057dc&gt;</div></td></tr><tr><td style="font-weight:bold;vertical-align:top;">wsgi.input</td><td style="vertical-align:top;">:</td><td><div>&lt;socket._fileobject object at 0xaca741ec&gt;</div></td></tr><tr><td style="font-weight:bold;vertical-align:top;">wsgi.multiprocess</td><td style="vertical-align:top;">:</td><td><div>False</div></td></tr><tr><td style="font-weight:bold;vertical-align:top;">wsgi.multithread</td><td style="vertical-align:top;">:</td><td><div>True</div></td></tr><tr><td style="font-weight:bold;vertical-align:top;">wsgi.run_once</td><td style="vertical-align:top;">:</td><td><div>False</div></td></tr><tr><td style="font-weight:bold;vertical-align:top;">wsgi.url_scheme</td><td style="vertical-align:top;">:</td><td><div>http</div></td></tr><tr><td style="font-weight:bold;vertical-align:top;">wsgi.version</td><td style="vertical-align:top;">:</td><td><div><table><tr><td><div>1</div></td></tr><tr><td><div>0</div></td></tr></table></div></td></tr><tr><td style="font-weight:bold;vertical-align:top;">wsgi_errors</td><td style="vertical-align:top;">:</td><td><div>&lt;open file &#x27;&lt;stderr&gt;&#x27;, mode &#x27;w&#x27; at 0xb75590d0&gt;</div></td></tr><tr><td style="font-weight:bold;vertical-align:top;">wsgi_file_wrapper</td><td style="vertical-align:top;">:</td><td><div>&lt;class wsgiref.util.FileWrapper at 0xa5057dc&gt;</div></td></tr><tr><td style="font-weight:bold;vertical-align:top;">wsgi_input</td><td style="vertical-align:top;">:</td><td><div>&lt;socket._fileobject object at 0xaca741ec&gt;</div></td></tr><tr><td style="font-weight:bold;vertical-align:top;">wsgi_multiprocess</td><td style="vertical-align:top;">:</td><td><div>False</div></td></tr><tr><td style="font-weight:bold;vertical-align:top;">wsgi_multithread</td><td style="vertical-align:top;">:</td><td><div>True</div></td></tr><tr><td style="font-weight:bold;vertical-align:top;">wsgi_run_once</td><td style="vertical-align:top;">:</td><td><div>False</div></td></tr><tr><td style="font-weight:bold;vertical-align:top;">wsgi_url_scheme</td><td style="vertical-align:top;">:</td><td><div>http</div></td></tr><tr><td style="font-weight:bold;vertical-align:top;">wsgi_version</td><td style="vertical-align:top;">:</td><td><div><table><tr><td><div>1</div></td></tr><tr><td><div>0</div></td></tr></table></div></td></tr></table></div></td></tr><tr><td style="font-weight:bold;vertical-align:top;">extension</td><td style="vertical-align:top;">:</td><td><div>html</div></td></tr><tr><td style="font-weight:bold;vertical-align:top;">folder</td><td style="vertical-align:top;">:</td><td><div>/home/darshan-ubuntu/Project/web2py/applications/PhoneReviews/</div></td></tr><tr><td style="font-weight:bold;vertical-align:top;">function</td><td style="vertical-align:top;">:</td><td><div>specifications</div></td></tr><tr><td style="font-weight:bold;vertical-align:top;">global_settings</td><td style="vertical-align:top;">:</td><td><div><table><tr><td style="font-weight:bold;vertical-align:top;">app_folders</td><td style="vertical-align:top;">:</td><td><div>set([&#x27;/home/darshan-ubuntu/Project/web2py/applications/admin/&#x27;, &#x27;/home/darshan-ubuntu/Project/web2py/applications/welcome/&#x27;, &#x27;/home/darshan-ubuntu/Project/web2py/applications/PhoneReviews/&#x27;])</div></td></tr><tr><td style="font-weight:bold;vertical-align:top;">applications_parent</td><td style="vertical-align:top;">:</td><td><div>/home/darshan-ubuntu/Project/web2py</div></td></tr><tr><td style="font-weight:bold;vertical-align:top;">cmd_args</td><td style="vertical-align:top;">:</td><td><div><table></table></div></td></tr><tr><td style="font-weight:bold;vertical-align:top;">cmd_options</td><td style="vertical-align:top;">:</td><td><div>&lt;Values at 0xa3982cc: {&#x27;verbose&#x27;: False, &#x27;ip&#x27;: &#x27;127.0.0.1&#x27;, &#x27;debuglevel&#x27;: 30, &#x27;with_scheduler&#x27;: False, &#x27;ips&#x27;: [&#x27;127.0.1.1&#x27;], &#x27;shutdown_timeout&#x27;: 5, &#x27;taskbar&#x27;: False, &#x27;with_coverage&#x27;: False, &#x27;scheduler_groups&#x27;: None, &#x27;port&#x27;: 8000, &#x27;maxthreads&#x27;: None, &#x27;softcron&#x27;: False, &#x27;server_name&#x27;: &#x27;darshan&#x27;, &#x27;bpython&#x27;: False, &#x27;nogui&#x27;: False, &#x27;pid_filename&#x27;: &#x27;httpserver.pid&#x27;, &#x27;extcron&#x27;: False, &#x27;runcron&#x27;: False, &#x27;run_system_tests&#x27;: False, &#x27;test&#x27;: None, &#x27;folder&#x27;: &#x27;/home/darshan-ubuntu/Project/web2py&#x27;, &#x27;config&#x27;: &#x27;&#x27;, &#x27;minthreads&#x27;: None, &#x27;shell&#x27;: None, &#x27;run&#x27;: &#x27;&#x27;, &#x27;log_filename&#x27;: &#x27;httpserver.log&#x27;, &#x27;profiler_dir&#x27;: None, &#x27;args&#x27;: [&#x27;&#x27;], &#x27;socket_timeout&#x27;: 5, &#x27;ssl_ca_certificate&#x27;: None, &#x27;scheduler&#x27;: None, &#x27;interfaces&#x27;: None, &#x27;ssl_private_key&#x27;: &#x27;&#x27;, &#x27;gae&#x27;: None, &#x27;password&#x27;: &#x27;&lt;ask&gt;&#x27;, &#x27;request_queue_size&#x27;: 5, &#x27;ssl_certificate&#x27;: &#x27;&#x27;, &#x27;cronjob&#x27;: False, &#x27;numthreads&#x27;: None, &#x27;quiet&#x27;: False, &#x27;import_models&#x27;: False, &#x27;timeout&#x27;: 10, &#x27;plain&#x27;: False, &#x27;nobanner&#x27;: False}&gt;</div></td></tr><tr><td style="font-weight:bold;vertical-align:top;">db_sessions</td><td style="vertical-align:top;">:</td><td><div>set([])</div></td></tr><tr><td style="font-weight:bold;vertical-align:top;">debugging</td><td style="vertical-align:top;">:</td><td><div>False</div></td></tr><tr><td style="font-weight:bold;vertical-align:top;">gluon_parent</td><td style="vertical-align:top;">:</td><td><div>/home/darshan-ubuntu/Project/web2py</div></td></tr><tr><td style="font-weight:bold;vertical-align:top;">is_jython</td><td style="vertical-align:top;">:</td><td><div>False</div></td></tr><tr><td style="font-weight:bold;vertical-align:top;">is_pypy</td><td style="vertical-align:top;">:</td><td><div>False</div></td></tr><tr><td style="font-weight:bold;vertical-align:top;">is_source</td><td style="vertical-align:top;">:</td><td><div>True</div></td></tr><tr><td style="font-weight:bold;vertical-align:top;">local_hosts</td><td style="vertical-align:top;">:</td><td><div><table><tr><td><div>darshan</div></td></tr><tr><td><div>::1</div></td></tr><tr><td><div>127.0.1.1</div></td></tr><tr><td><div>::ffff:127.0.0.1</div></td></tr><tr><td><div>127.0.0.1</div></td></tr></table></div></td></tr><tr><td style="font-weight:bold;vertical-align:top;">web2py_version</td><td style="vertical-align:top;">:</td><td><div>2.9.5-trunk+timestamp.2014.04.02.09.18.42</div></td></tr></table></div></td></tr><tr><td style="font-weight:bold;vertical-align:top;">is_https</td><td style="vertical-align:top;">:</td><td><div>False</div></td></tr><tr><td style="font-weight:bold;vertical-align:top;">is_local</td><td style="vertical-align:top;">:</td><td><div>True</div></td></tr><tr><td style="font-weight:bold;vertical-align:top;">is_restful</td><td style="vertical-align:top;">:</td><td><div>False</div></td></tr><tr><td style="font-weight:bold;vertical-align:top;">now</td><td style="vertical-align:top;">:</td><td><div>datetime.datetime(2014, 5, 3, 17, 31, 34, 856756)</div></td></tr><tr><td style="font-weight:bold;vertical-align:top;">raw_args</td><td style="vertical-align:top;">:</td><td><div></div></td></tr><tr><td style="font-weight:bold;vertical-align:top;">raw_extension</td><td style="vertical-align:top;">:</td><td><div>None</div></td></tr><tr><td style="font-weight:bold;vertical-align:top;">url</td><td style="vertical-align:top;">:</td><td><div>/PhoneReviews/default/specifications</div></td></tr><tr><td style="font-weight:bold;vertical-align:top;">utcnow</td><td style="vertical-align:top;">:</td><td><div>datetime.datetime(2014, 5, 3, 12, 1, 34, 856793)</div></td></tr><tr><td style="font-weight:bold;vertical-align:top;">uuid</td><td style="vertical-align:top;">:</td><td><div>PhoneReviews/127.0.0.1.2014-05-03.17-31-34.65f4afb9-bbb7-4849-8a38-1e5042487d33</div></td></tr><tr><td style="font-weight:bold;vertical-align:top;">wsgi</td><td style="vertical-align:top;">:</td><td><div>&lt;gluon.main.LazyWSGI object at 0xacba932c&gt;</div></td></tr></table></div>'
tRp58
sS'frames'
p59
(lp60
(dp61
S'file'
p62
S'/home/darshan-ubuntu/Project/web2py/gluon/restricted.py'
p63
sS'dump'
p64
(dp65
S'environment'
p66
S"{'A': <class 'gluon.html.A'>, 'ANY_OF': <class 'gluon.validators.ANY_OF'>, 'Auth': <class 'gluon.tools.Auth'>, 'B': <class 'gluon.html.B'>, 'BEAUTIFY': <class 'gluon.html.BEAUTIFY'>, 'BODY': <class 'gluon.html.BODY'>, 'BR': <class 'gluon.html.BR'>, 'BUTTON': <class 'gluon.html.BUTTON'>, 'CAT': <class 'gluon.html.CAT'>, 'CENTER': <class 'gluon.html.CENTER'>, ...}"
p67
sS'ccode'
p68
S'<code object <module> at 0xac647a40, file "/home...views/views/default/specifications.html", line 1>'
p69
ssS'lnum'
p70
I220
sS'lines'
p71
(dp72
I224
S'        # do not encapsulate (obfuscate) the original RestrictedError'
p73
sI215
S'    try:'
p74
sI216
S'        if isinstance(code, types.CodeType):'
p75
sI217
S'            ccode = code'
p76
sI218
S'        else:'
p77
sI219
S'            ccode = compile2(code, layer)'
p78
sI220
S'        exec ccode in environment'
p79
sI221
S'    except HTTP:'
p80
sI222
S'        raise'
p81
sI223
S'    except RestrictedError:'
p82
ssS'call'
p83
S'(code=\'response.write(\\\'<!DOCTYPE html>\\\\n<html class="no... }\\\\n  </script>\\\\n</body>\\\\n</html>\\\', escape=False)\', environment={\'A\': <class \'gluon.html.A\'>, \'ANY_OF\': <class \'gluon.validators.ANY_OF\'>, \'Auth\': <class \'gluon.tools.Auth\'>, \'B\': <class \'gluon.html.B\'>, \'BEAUTIFY\': <class \'gluon.html.BEAUTIFY\'>, \'BODY\': <class \'gluon.html.BODY\'>, \'BR\': <class \'gluon.html.BR\'>, \'BUTTON\': <class \'gluon.html.BUTTON\'>, \'CAT\': <class \'gluon.html.CAT\'>, \'CENTER\': <class \'gluon.html.CENTER\'>, ...}, layer=\'/home/darshan-ubuntu/Project/web2py/applications/PhoneReviews/views/default/specifications.html\')'
p84
sS'func'
p85
S'restricted'
p86
sa(dp87
g62
S'/home/darshan-ubuntu/Project/web2py/applications/PhoneReviews/views/default/specifications.html'
p88
sg64
(dp89
S'ul'
p90
S'undefined'
p91
ssg70
I94
sg71
(dp92
I96
S'    response.write(a)'
p93
sI97
S"    response.write('</a>\\n\\t \\t<a>>></a>\\n\\t \\t', escape=False)"
p94
sI98
S'    pass'
p95
sI99
S'response.write(\'\\n\\t\\t<a href="#">\', escape=False)'
p96
sI100
S"response.write(b.strip(','))"
p97
sI101
S'response.write(\'</a>\\n\\t</p>\\n</div>\\n\\n<div class="row">\\n\\t<div class="span6">\\n\\t<br/>\\n\\t\\t<img class="change" id="0" height="10" src=\', escape=False)'
p98
sI102
S'response.write(src)'
p99
sI103
S'response.write(\' onclick=fun()>\\n\\t</div>\\n\\t<div class="span6">\\n\\t\\t<center>\\n\\t\\t<h2 style="vertical-align:middle;">\', escape=False)'
p100
sI104
S"response.write(b.strip(','))"
p101
sI85
S'    response.write(\'">Home</a>\\n\\t \\t<a>>></a>\\n\\t\\t<a href="\', escape=False)'
p102
sI86
S"    response.write(URL('products', vars=dict(manufacturer=a)))"
p103
sI87
S'    response.write(\'">\', escape=False)'
p104
sI88
S'    response.write(a)'
p105
sI89
S"    response.write('</a>\\n\\t \\t<a>>></a>\\n\\t \\t', escape=False)"
p106
sI90
S'else:'
p107
sI91
S'    response.write(\'\\t\\n\\t\\t<a href="\', escape=False)'
p108
sI92
S"    response.write(URL('index', vars=dict(user=request.vars['user'])))"
p109
sI93
S'    response.write(\'">Home</a>\\n\\t \\t<a>>></a>\\n\\t\\t<a href="\', escape=False)'
p110
sI94
S"    response.write(URL('products', vars=dict(manufacturer=a, user=request.vars['user'])))"
p111
sI95
S'    response.write(\'">\', escape=False)'
p112
ssg83
S'()'
p113
sg85
S'<module>'
p114
sasS'pyver'
p115
S'Python 2.7.5+: /usr/bin/python (prefix: /usr)'
p116
sS'session'
p117
g57
(S's\x1a\x00\x00\x00<div><table></table></div>'
tRp118
sS'etype'
p119
S"<type 'exceptions.NameError'>"
p120
sS'date'
p121
S'Sat May  3 17:31:34 2014'
p122
sS'response'
p123
g57
(S's\xbc5\x00\x00<div><table><tr><td style="font-weight:bold;vertical-align:top;">body</td><td style="vertical-align:top;">:</td><td><div>&lt;cStringIO.StringO object at 0xacba92a0&gt;</div></td></tr><tr><td style="font-weight:bold;vertical-align:top;">cookies</td><td style="vertical-align:top;">:</td><td><div><table><tr><td style="font-weight:bold;vertical-align:top;">session_id_phonereviews</td><td style="vertical-align:top;">:</td><td><div>127.0.0.1-6823283c-fb41-4d6e-abd4-3eb482e7b44c<table><tr><td style="font-weight:bold;vertical-align:top;">comment</td><td style="vertical-align:top;">:</td><td><div></div></td></tr><tr><td style="font-weight:bold;vertical-align:top;">domain</td><td style="vertical-align:top;">:</td><td><div></div></td></tr><tr><td style="font-weight:bold;vertical-align:top;">expires</td><td style="vertical-align:top;">:</td><td><div></div></td></tr><tr><td style="font-weight:bold;vertical-align:top;">httponly</td><td style="vertical-align:top;">:</td><td><div></div></td></tr><tr><td style="font-weight:bold;vertical-align:top;">max-age</td><td style="vertical-align:top;">:</td><td><div></div></td></tr><tr><td style="font-weight:bold;vertical-align:top;">path</td><td style="vertical-align:top;">:</td><td><div>/</div></td></tr><tr><td style="font-weight:bold;vertical-align:top;">secure</td><td style="vertical-align:top;">:</td><td><div></div></td></tr><tr><td style="font-weight:bold;vertical-align:top;">version</td><td style="vertical-align:top;">:</td><td><div></div></td></tr></table></div></td></tr></table></div></td></tr><tr><td style="font-weight:bold;vertical-align:top;">delimiters</td><td style="vertical-align:top;">:</td><td><div><table><tr><td><div>{{</div></td></tr><tr><td><div>}}</div></td></tr></table></div></td></tr><tr><td style="font-weight:bold;vertical-align:top;">files</td><td style="vertical-align:top;">:</td><td><div><table><tr><td><div>/PhoneReviews/static/js/jquery.js</div></td></tr><tr><td><div>/PhoneReviews/static/css/calendar.css</div></td></tr><tr><td><div>/PhoneReviews/static/js/calendar.js</div></td></tr><tr><td><div>/PhoneReviews/static/js/web2py.js</div></td></tr><tr><td><div>/PhoneReviews/static/css/untitled.css</div></td></tr><tr><td><div>/PhoneReviews/static/css/bootstrap.min.css</div></td></tr><tr><td><div>/PhoneReviews/static/css/bootstrap-responsive.min.css</div></td></tr><tr><td><div>/PhoneReviews/static/css/specifications.css</div></td></tr><tr><td><div>/PhoneReviews/static/css/web2py_bootstrap.css</div></td></tr><tr><td><div>/PhoneReviews/static/css/offcanvas.css</div></td></tr><tr><td><div>/PhoneReviews/static/css/bootstrap.css</div></td></tr><tr><td><div>/PhoneReviews/static/css/web2py.css</div></td></tr></table></div></td></tr><tr><td style="font-weight:bold;vertical-align:top;">flash</td><td style="vertical-align:top;">:</td><td><div></div></td></tr><tr><td style="font-weight:bold;vertical-align:top;">generic_patterns</td><td style="vertical-align:top;">:</td><td><div><table><tr><td><div>*</div></td></tr></table></div></td></tr><tr><td style="font-weight:bold;vertical-align:top;">google_analytics_id</td><td style="vertical-align:top;">:</td><td><div>None</div></td></tr><tr><td style="font-weight:bold;vertical-align:top;">headers</td><td style="vertical-align:top;">:</td><td><div><table><tr><td style="font-weight:bold;vertical-align:top;">X-Powered-By</td><td style="vertical-align:top;">:</td><td><div>web2py</div></td></tr></table></div></td></tr><tr><td style="font-weight:bold;vertical-align:top;">logo</td><td style="vertical-align:top;">:</td><td><div><a class="brand" href="http://www.web2py.com/"><b>web<span>2</span>py</b>&trade;&nbsp;</a></div></td></tr><tr><td style="font-weight:bold;vertical-align:top;">menu</td><td style="vertical-align:top;">:</td><td><div><table><tr><td><div><table><tr><td><div>Home</div></td></tr><tr><td><div>False</div></td></tr><tr><td><div>/PhoneReviews/default/index</div></td></tr><tr><td><div><table></table></div></td></tr></table></div></td></tr><tr><td><div><table><tr><td><div><span class="highlighted">web2py</span></div></td></tr><tr><td><div>False</div></td></tr><tr><td><div>http://web2py.com</div></td></tr><tr><td><div><table><tr><td><div><table><tr><td><div>My Sites</div></td></tr><tr><td><div>False</div></td></tr><tr><td><div>/admin/default/site</div></td></tr></table></div></td></tr><tr><td><div><table><tr><td><div>This App</div></td></tr><tr><td><div>False</div></td></tr><tr><td><div>/admin/default/design/PhoneReviews</div></td></tr><tr><td><div>[(&lt;lazyT &#x27;Controller&#x27;&gt;, False, &#x27;/admin/default/edit/PhoneReviews/controllers/default.py&#x27;), (&lt;lazyT &#x27;View&#x27;&gt;, False, &#x27;/admin/default/edit/PhoneReviews/views/default/specifications.html&#x27;), (&lt;lazyT &#x27;Layout&#x27;&gt;, False, &#x27;/admin/default/edit/PhoneReviews/views/layout.html&#x27;), (&lt;lazyT &#x27;Stylesheet&#x27;&gt;, False, &#x27;/admin/default/edit/PhoneReviews/static/css/web2py.css&#x27;), (&lt;lazyT &#x27;DB Model&#x27;&gt;, False, &#x27;/admin/default/edit/PhoneReviews/models/db.py&#x27;), (&lt;lazyT &#x27;Menu Model&#x27;&gt;, False, &#x27;/admin/default/edit/PhoneReviews/models/menu.py&#x27;), (&lt;lazyT &#x27;Database&#x27;&gt;, False, &#x27;/PhoneReviews/appadmin/index&#x27;), (&lt;lazyT &#x27;Errors&#x27;&gt;, False, &#x27;/admin/default/errors/PhoneReviews&#x27;), (&lt;lazyT &#x27;About&#x27;&gt;, False, &#x27;/admin/default/about/PhoneReviews&#x27;)]</div></td></tr></table></div></td></tr><tr><td><div><table><tr><td><div>web2py.com</div></td></tr><tr><td><div>False</div></td></tr><tr><td><div>http://www.web2py.com</div></td></tr><tr><td><div>[(&lt;lazyT &#x27;Download&#x27;&gt;, False, &#x27;http://www.web2py.com/examples/default/download&#x27;), (&lt;lazyT &#x27;Support&#x27;&gt;, False, &#x27;http://www.web2py.com/examples/default/support&#x27;), (&lt;lazyT &#x27;Demo&#x27;&gt;, False, &#x27;http://web2py.com/demo_admin&#x27;), (&lt;lazyT &#x27;Quick Examples&#x27;&gt;, False, &#x27;http://web2py.com/examples/default/examples&#x27;), (&lt;lazyT &#x27;FAQ&#x27;&gt;, False, &#x27;http://web2py.com/AlterEgo&#x27;), (&lt;lazyT &#x27;Videos&#x27;&gt;, False, &#x27;http://www.web2py.com/examples/default/videos/&#x27;), (&lt;lazyT &#x27;Free Applications&#x27;&gt;, False, &#x27;http://web2py.com/appliances&#x27;), (&lt;lazyT &#x27;Plugins&#x27;&gt;, False, &#x27;http://web2py.com/plugins&#x27;), (&lt;lazyT &#x27;Layouts&#x27;&gt;, False, &#x27;http://web2py.com/layouts&#x27;), (&lt;lazyT &#x27;Recipes&#x27;&gt;, False, &#x27;http://web2pyslices.com/&#x27;), (&lt;lazyT &#x27;Semantic&#x27;&gt;, False, &#x27;http://web2py.com/semantic&#x27;)]</div></td></tr></table></div></td></tr><tr><td><div><table><tr><td><div>Documentation</div></td></tr><tr><td><div>False</div></td></tr><tr><td><div>http://www.web2py.com/book</div></td></tr><tr><td><div>[(&lt;lazyT &#x27;Preface&#x27;&gt;, False, &#x27;http://www.web2py.com/book/default/chapter/00&#x27;), (&lt;lazyT &#x27;Introduction&#x27;&gt;, False, &#x27;http://www.web2py.com/book/default/chapter/01&#x27;), (&lt;lazyT &#x27;Python&#x27;&gt;, False, &#x27;http://www.web2py.com/book/default/chapter/02&#x27;), (&lt;lazyT &#x27;Overview&#x27;&gt;, False, &#x27;http://www.web2py.com/book/default/chapter/03&#x27;), (&lt;lazyT &#x27;The Core&#x27;&gt;, False, &#x27;http://www.web2py.com/book/default/chapter/04&#x27;), (&lt;lazyT &#x27;The Views&#x27;&gt;, False, &#x27;http://www.web2py.com/book/default/chapter/05&#x27;), (&lt;lazyT &#x27;Database&#x27;&gt;, False, &#x27;http://www.web2py.com/book/default/chapter/06&#x27;), (&lt;lazyT &#x27;Forms and Validators&#x27;&gt;, False, &#x27;http://www.web2py.com/book/default/chapter/07&#x27;), (&lt;lazyT &#x27;Email and SMS&#x27;&gt;, False, &#x27;http://www.web2py.com/book/default/chapter/08&#x27;), (&lt;lazyT &#x27;Access Control&#x27;&gt;, False, &#x27;http://www.web2py.com/book/default/chapter/09&#x27;), (&lt;lazyT &#x27;Services&#x27;&gt;, False, &#x27;http://www.web2py.com/book/default/chapter/10&#x27;), (&lt;lazyT &#x27;Ajax Recipes&#x27;&gt;, False, &#x27;http://www.web2py.com/book/default/chapter/11&#x27;), (&lt;lazyT &#x27;Components and Plugins&#x27;&gt;, False, &#x27;http://www.web2py.com/book/default/chapter/12&#x27;), (&lt;lazyT &#x27;Deployment Recipes&#x27;&gt;, False, &#x27;http://www.web2py.com/book/default/chapter/13&#x27;), (&lt;lazyT &#x27;Other Recipes&#x27;&gt;, False, &#x27;http://www.web2py.com/book/default/chapter/14&#x27;), (&lt;lazyT &#x27;Buy this book&#x27;&gt;, False, &#x27;http://stores.lulu.com/web2py&#x27;)]</div></td></tr></table></div></td></tr><tr><td><div><table><tr><td><div>Community</div></td></tr><tr><td><div>False</div></td></tr><tr><td><div>None</div></td></tr><tr><td><div>[(&lt;lazyT &#x27;Groups&#x27;&gt;, False, &#x27;http://www.web2py.com/examples/default/usergroups&#x27;), (&lt;lazyT &#x27;Twitter&#x27;&gt;, False, &#x27;http://twitter.com/web2py&#x27;), (&lt;lazyT &#x27;Live Chat&#x27;&gt;, False, &#x27;http://webchat.freenode.net/?channels=web2py&#x27;)]</div></td></tr></table></div></td></tr><tr><td><div><table><tr><td><div>Plugins</div></td></tr><tr><td><div>False</div></td></tr><tr><td><div>None</div></td></tr><tr><td><div>[(&#x27;plugin_wiki&#x27;, False, &#x27;http://web2py.com/examples/default/download&#x27;), (&lt;lazyT &#x27;Other Plugins&#x27;&gt;, False, &#x27;http://web2py.com/plugins&#x27;), (&lt;lazyT &#x27;Layout Plugins&#x27;&gt;, False, &#x27;http://web2py.com/layouts&#x27;)]</div></td></tr></table></div></td></tr></table></div></td></tr></table></div></td></tr></table></div></td></tr><tr><td style="font-weight:bold;vertical-align:top;">meta</td><td style="vertical-align:top;">:</td><td><div><table><tr><td style="font-weight:bold;vertical-align:top;">author</td><td style="vertical-align:top;">:</td><td><div>Your Name &lt;you@example.com&gt;</div></td></tr><tr><td style="font-weight:bold;vertical-align:top;">description</td><td style="vertical-align:top;">:</td><td><div>a cool new app</div></td></tr><tr><td style="font-weight:bold;vertical-align:top;">generator</td><td style="vertical-align:top;">:</td><td><div>Web2py Web Framework</div></td></tr><tr><td style="font-weight:bold;vertical-align:top;">keywords</td><td style="vertical-align:top;">:</td><td><div>web2py, python, framework</div></td></tr></table></div></td></tr><tr><td style="font-weight:bold;vertical-align:top;">models_to_run</td><td style="vertical-align:top;">:</td><td><div><table><tr><td><div>^\\w+\\.py$</div></td></tr><tr><td><div>^default/\\w+\\.py$</div></td></tr><tr><td><div>^default/specifications/\\w+\\.py$</div></td></tr></table></div></td></tr><tr><td style="font-weight:bold;vertical-align:top;">postprocessing</td><td style="vertical-align:top;">:</td><td><div><table></table></div></td></tr><tr><td style="font-weight:bold;vertical-align:top;">session_client</td><td style="vertical-align:top;">:</td><td><div>127.0.0.1</div></td></tr><tr><td style="font-weight:bold;vertical-align:top;">session_cookie_compression_level</td><td style="vertical-align:top;">:</td><td><div>None</div></td></tr><tr><td style="font-weight:bold;vertical-align:top;">session_cookie_expires</td><td style="vertical-align:top;">:</td><td><div>None</div></td></tr><tr><td style="font-weight:bold;vertical-align:top;">session_cookie_key</td><td style="vertical-align:top;">:</td><td><div>None</div></td></tr><tr><td style="font-weight:bold;vertical-align:top;">session_data_name</td><td style="vertical-align:top;">:</td><td><div>session_data_phonereviews</div></td></tr><tr><td style="font-weight:bold;vertical-align:top;">session_file</td><td style="vertical-align:top;">:</td><td><div>&lt;open file &#x27;/home/darshan-ubuntu/Project/web2py/applications/PhoneReviews/sessions/127.0.0.1-6823283c-fb41-4d6e-abd4-3eb482e7b44c&#x27;, mode &#x27;rb+&#x27; at 0xaca6dee8&gt;</div></td></tr><tr><td style="font-weight:bold;vertical-align:top;">session_filename</td><td style="vertical-align:top;">:</td><td><div>/home/darshan-ubuntu/Project/web2py/applications/PhoneReviews/sessions/127.0.0.1-6823283c-fb41-4d6e-abd4-3eb482e7b44c</div></td></tr><tr><td style="font-weight:bold;vertical-align:top;">session_hash</td><td style="vertical-align:top;">:</td><td><div>68de0178d9c648f8610718827c2f0822</div></td></tr><tr><td style="font-weight:bold;vertical-align:top;">session_id</td><td style="vertical-align:top;">:</td><td><div>127.0.0.1-6823283c-fb41-4d6e-abd4-3eb482e7b44c</div></td></tr><tr><td style="font-weight:bold;vertical-align:top;">session_id_name</td><td style="vertical-align:top;">:</td><td><div>session_id_phonereviews</div></td></tr><tr><td style="font-weight:bold;vertical-align:top;">session_locked</td><td style="vertical-align:top;">:</td><td><div>True</div></td></tr><tr><td style="font-weight:bold;vertical-align:top;">session_masterapp</td><td style="vertical-align:top;">:</td><td><div>PhoneReviews</div></td></tr><tr><td style="font-weight:bold;vertical-align:top;">session_new</td><td style="vertical-align:top;">:</td><td><div>False</div></td></tr><tr><td style="font-weight:bold;vertical-align:top;">session_storage_type</td><td style="vertical-align:top;">:</td><td><div>file</div></td></tr><tr><td style="font-weight:bold;vertical-align:top;">status</td><td style="vertical-align:top;">:</td><td><div>200</div></td></tr><tr><td style="font-weight:bold;vertical-align:top;">subtitle</td><td style="vertical-align:top;">:</td><td><div></div></td></tr><tr><td style="font-weight:bold;vertical-align:top;">title</td><td style="vertical-align:top;">:</td><td><div>Phonereviews</div></td></tr><tr><td style="font-weight:bold;vertical-align:top;">view</td><td style="vertical-align:top;">:</td><td><div>default/specifications.html</div></td></tr></table></div>'
tRp124
sS'locals'
p125
(dp126
S'Service'
p127
S"<class 'gluon.tools.Service'>"
p128
sS'OBJECT'
p129
S"<class 'gluon.html.OBJECT'>"
p130
sS'SQLDB'
p131
S"<class 'gluon.dal.DAL'>"
p132
sg117
S"<Storage {'_formkey[register/create]': ['7a86cc0...orage {'version': '27.0', 'name': 'Firefox'}>}>}>"
p133
sS'LINK'
p134
S"<class 'gluon.html.LINK'>"
p135
sS'BR'
p136
S"<class 'gluon.html.BR'>"
p137
sS'local_import'
p138
S'<function <lambda>>'
p139
sS'OPTGROUP'
p140
S"<class 'gluon.html.OPTGROUP'>"
p141
sS'__package__'
p142
S'None'
p143
sS'PRE'
p144
S"<class 'gluon.html.PRE'>"
p145
sS'IS_INT_IN_RANGE'
p146
S"<class 'gluon.validators.IS_INT_IN_RANGE'>"
p147
sS'IS_LOWER'
p148
S"<class 'gluon.validators.IS_LOWER'>"
p149
sS'IS_STRONG'
p150
S"<class 'gluon.validators.IS_STRONG'>"
p151
sS'cache'
p152
S'<gluon.cache.Cache object>'
p153
sS'IS_IN_DB'
p154
S"<class 'gluon.validators.IS_IN_DB'>"
p155
sS'TAG'
p156
S'<gluon.html.__TAG__ object>'
p157
sS'SQLField'
p158
S"<class 'gluon.dal.Field'>"
p159
sS'mail'
p160
S'<gluon.tools.Mail object>'
p161
sS'BODY'
p162
S"<class 'gluon.html.BODY'>"
p163
sS'IS_DATE_IN_RANGE'
p164
S"<class 'gluon.validators.IS_DATE_IN_RANGE'>"
p165
sS'IFRAME'
p166
S"<class 'gluon.html.IFRAME'>"
p167
sS'URL'
p168
S'<function URL>'
p169
sS'__file__'
p170
S"'/home/darshan-ubuntu/Project/web2py/applications/PhoneReviews/views/default/specifications.html'"
p171
sS'db'
p172
S'<DAL uri="mysql:******@localhost/phone_reviews">'
p173
sS'auth'
p174
S'<gluon.tools.Auth object>'
p175
sS'P'
S"<class 'gluon.html.P'>"
p176
sS'TFOOT'
p177
S"<class 'gluon.html.TFOOT'>"
p178
sS'XHTML'
p179
S"<class 'gluon.html.XHTML'>"
p180
sS'request_uri'
p181
S"'http://127.0.0.1:8000/PhoneReviews/default/speci...?manufacturer=Nexus&phone=Google+Nexus+5&user=dmn'"
p182
sS'ON'
p183
S'True'
p184
sS'OL'
p185
S"<class 'gluon.html.OL'>"
p186
sS'TEXTAREA'
p187
S"<class 'gluon.html.TEXTAREA'>"
p188
sS'MENU'
p189
S"<class 'gluon.html.MENU'>"
p190
sS'IS_IMAGE'
p191
S"<class 'gluon.validators.IS_IMAGE'>"
p192
sS'EM'
p193
S"<class 'gluon.html.EM'>"
p194
sS'CODE'
p195
S"<class 'gluon.html.CODE'>"
p196
sS'HTTP'
p197
S"<class 'gluon.http.HTTP'>"
p198
sS'HR'
p199
S"<class 'gluon.html.HR'>"
p200
sS'IS_DATETIME'
p201
S"<class 'gluon.validators.IS_DATETIME'>"
p202
sS'STYLE'
p203
S"<class 'gluon.html.STYLE'>"
p204
sS'LABEL'
p205
S"<class 'gluon.html.LABEL'>"
p206
sS'CLEANUP'
p207
S"<class 'gluon.validators.CLEANUP'>"
p208
sS'plugins'
p209
S'<gluon.tools.PluginManager object>'
p210
sS'SELECT'
p211
S"<class 'gluon.html.SELECT'>"
p212
sS'use_janrain'
p213
S'<function use_janrain>'
p214
sS'CENTER'
p215
S"<class 'gluon.html.CENTER'>"
p216
sS'prettydate'
p217
S'<function prettydate>'
p218
sS'Crud'
p219
S"<class 'gluon.tools.Crud'>"
p220
sS'Auth'
p221
S"<class 'gluon.tools.Auth'>"
p222
sS'DEVELOPMENT_MENU'
p223
g184
sS'content'
p224
S'<gluon.html.A object>'
p225
sS'__builtins__'
p226
S"{'ArithmeticError': <type 'exceptions.ArithmeticError'>, 'AssertionError': <type 'exceptions.AssertionError'>, 'AttributeError': <type 'exceptions.AttributeError'>, 'BaseException': <type 'exceptions.BaseException'>, 'BufferError': <type 'exceptions.BufferError'>, 'BytesWarning': <type 'exceptions.BytesWarning'>, 'DeprecationWarning': <type 'exceptions.DeprecationWarning'>, 'EOFError': <type 'exceptions.EOFError'>, 'Ellipsis': Ellipsis, 'EnvironmentError': <type 'exceptions.EnvironmentError'>, ...}"
p227
sS'HTML'
p228
S"<class 'gluon.html.HTML'>"
p229
sS'SQLFORM'
p230
S"<class 'gluon.sqlhtml.SQLFORM'>"
p231
sS'LOAD'
p232
S'<function LOAD>'
p233
sS'redirect'
p234
S'<function redirect>'
p235
sS'FIELDSET'
p236
S"<class 'gluon.html.FIELDSET'>"
p237
sS'IS_EQUAL_TO'
p238
S"<class 'gluon.validators.IS_EQUAL_TO'>"
p239
sS'embed64'
p240
S'<function embed64>'
p241
sS'IS_LIST_OF'
p242
S"<class 'gluon.validators.IS_LIST_OF'>"
p243
sS'INPUT'
p244
S"<class 'gluon.html.INPUT'>"
p245
sS'EMBED'
p246
S"<class 'gluon.html.EMBED'>"
p247
sS'_'
S'<function _>'
p248
sS'H2'
p249
S"<class 'gluon.html.H2'>"
p250
sS'H3'
p251
S"<class 'gluon.html.H3'>"
p252
sS'BUTTON'
p253
S"<class 'gluon.html.BUTTON'>"
p254
sS'H1'
p255
S"<class 'gluon.html.H1'>"
p256
sS'H6'
p257
S"<class 'gluon.html.H6'>"
p258
sS'H4'
p259
S"<class 'gluon.html.H4'>"
p260
sS'H5'
p261
S"<class 'gluon.html.H5'>"
p262
sS'UL'
p263
S"<class 'gluon.html.UL'>"
p264
sS'IS_UPPER'
p265
S"<class 'gluon.validators.IS_UPPER'>"
p266
sS'xmlescape'
p267
S'<function xmlescape>'
p268
sS'IS_TIME'
p269
S"<class 'gluon.validators.IS_TIME'>"
p270
sS'OPTION'
p271
S"<class 'gluon.html.OPTION'>"
p272
sS'TITLE'
p273
S"<class 'gluon.html.TITLE'>"
p274
sS'CRYPT'
p275
S"<class 'gluon.validators.CRYPT'>"
p276
sS'IS_EMPTY_OR'
p277
S"<class 'gluon.validators.IS_EMPTY_OR'>"
p278
sS'MARKMIN'
p279
S"<class 'gluon.html.MARKMIN'>"
p280
sS'__name__'
p281
S"'__restricted__'"
p282
sS'STRONG'
p283
S"<class 'gluon.html.STRONG'>"
p284
sS'COL'
p285
S"<class 'gluon.html.COL'>"
p286
sS'service'
p287
S'<gluon.tools.Service object>'
p288
sS'SCRIPT'
p289
S"<class 'gluon.html.SCRIPT'>"
p290
sS'is_mobile'
p291
S'False'
p292
sS'TABLE'
p293
S"<class 'gluon.html.TABLE'>"
p294
sS'IS_IPV4'
p295
S"<class 'gluon.validators.IS_IPV4'>"
p296
sS'IS_LENGTH'
p297
S"<class 'gluon.validators.IS_LENGTH'>"
p298
sS'IS_IPV6'
p299
S"<class 'gluon.validators.IS_IPV6'>"
p300
sS'XML'
p301
S"<class 'gluon.html.XML'>"
p302
sS'B'
S"<class 'gluon.html.B'>"
p303
sS'IMG'
p304
S"<class 'gluon.html.IMG'>"
p305
sS'SQLTABLE'
p306
S"<class 'gluon.sqlhtml.SQLTABLE'>"
p307
sS'IS_MATCH'
p308
S"<class 'gluon.validators.IS_MATCH'>"
p309
sS'IS_ALPHANUMERIC'
p310
S"<class 'gluon.validators.IS_ALPHANUMERIC'>"
p311
sS'SPAN'
p312
S"<class 'gluon.html.SPAN'>"
p313
sS'IS_JSON'
p314
S"<class 'gluon.validators.IS_JSON'>"
p315
sS'IS_IPADDRESS'
p316
S"<class 'gluon.validators.IS_IPADDRESS'>"
p317
sS'IS_SLUG'
p318
S"<class 'gluon.validators.IS_SLUG'>"
p319
sS'BEAUTIFY'
p320
S"<class 'gluon.html.BEAUTIFY'>"
p321
sS'META'
p322
S"<class 'gluon.html.META'>"
p323
sS'IS_DATE'
p324
S"<class 'gluon.validators.IS_DATE'>"
p325
sS'IS_EMAIL'
p326
S"<class 'gluon.validators.IS_EMAIL'>"
p327
sS'IS_NOT_EMPTY'
p328
S"<class 'gluon.validators.IS_NOT_EMPTY'>"
p329
sS'IS_FLOAT_IN_RANGE'
p330
S"<class 'gluon.validators.IS_FLOAT_IN_RANGE'>"
p331
sS'TBODY'
p332
S"<class 'gluon.html.TBODY'>"
p333
sS'CAT'
p334
S"<class 'gluon.html.CAT'>"
p335
sS'Field'
p336
S"<class 'gluon.dal.Field'>"
p337
sS'IS_LIST_OF_EMAILS'
p338
S"<class 'gluon.validators.IS_LIST_OF_EMAILS'>"
p339
sS'DIV'
p340
S"<class 'gluon.html.DIV'>"
p341
sS'LEGEND'
p342
S"<class 'gluon.html.LEGEND'>"
p343
sS'COLGROUP'
p344
S"<class 'gluon.html.COLGROUP'>"
p345
sS'DAL'
p346
S"<class 'gluon.dal.DAL'>"
p347
sS'TT'
p348
S"<class 'gluon.html.TT'>"
p349
sS'TR'
p350
S"<class 'gluon.html.TR'>"
p351
sS'LI'
p352
S"<class 'gluon.html.LI'>"
p353
sS'TH'
p354
S"<class 'gluon.html.TH'>"
p355
sS'TD'
p356
S"<class 'gluon.html.TD'>"
p357
sS'PluginManager'
p358
S"<class 'gluon.tools.PluginManager'>"
p359
sS'IS_URL'
p360
S"<class 'gluon.validators.IS_URL'>"
p361
sS'A'
S"<class 'gluon.html.A'>"
p362
sS'HEAD'
p363
S"<class 'gluon.html.HEAD'>"
p364
sS'IS_DATETIME_IN_RANGE'
p365
S"<class 'gluon.validators.IS_DATETIME_IN_RANGE'>"
p366
sS'FORM'
p367
S"<class 'gluon.html.FORM'>"
p368
sS'I'
S"<class 'gluon.html.I'>"
p369
sS'crud'
p370
S'<gluon.tools.Crud object>'
p371
sS'IS_NOT_IN_DB'
p372
S"<class 'gluon.validators.IS_NOT_IN_DB'>"
p373
sS'user'
p374
S"'dmn'"
p375
sg123
S"<Storage {'body': <cStringIO.StringO object at 0...a9b6924>, 'view': 'default/specifications.html'}>"
p376
sS'THEAD'
p377
S"<class 'gluon.html.THEAD'>"
p378
sS'ANY_OF'
p379
S"<class 'gluon.validators.ANY_OF'>"
p380
sS'IS_NULL_OR'
p381
S"<class 'gluon.validators.IS_EMPTY_OR'>"
p382
sg56
S"<Storage {'_vars': <Storage {'phone': 'Google Ne...untu/Project/web2py/applications/PhoneReviews/'}>"
p383
sS'IS_EXPR'
p384
S"<class 'gluon.validators.IS_EXPR'>"
p385
sS'T'
S'<gluon.languages.translator object>'
p386
sS'IS_IN_SET'
p387
S"<class 'gluon.validators.IS_IN_SET'>"
p388
sS'IS_UPLOAD_FILENAME'
p389
S"<class 'gluon.validators.IS_UPLOAD_FILENAME'>"
p390
sS'IS_DECIMAL_IN_RANGE'
p391
S"<class 'gluon.validators.IS_DECIMAL_IN_RANGE'>"
p392
sssS'traceback'
p393
S'Traceback (most recent call last):\n  File "/home/darshan-ubuntu/Project/web2py/gluon/restricted.py", line 220, in restricted\n    exec ccode in environment\n  File "/home/darshan-ubuntu/Project/web2py/applications/PhoneReviews/views/default/specifications.html", line 94, in <module>\n    <ul class=" s_lv_1 ">\nNameError: name \'a\' is not defined\n'
p394
s.