(dp1
S'output'
p2
S'missing "pass" in view'
p3
sS'layer'
p4
S'ParserContainer'
p5
sS'code'
p6
S'response.write(\'<!DOCTYPE html>\\n<html class="no-js" lang="\', escape=False)\nresponse.write(T.accepted_language or \'en\')\nresponse.write(\'"> \\n<head>\\n<title>\', escape=False)\nresponse.write(response.title or request.application)\nresponse.write(\'</title>\\n  <meta charset="utf-8" />\\n    <meta name="application-name" content="\', escape=False)\nresponse.write(request.application)\nresponse.write(\'" />\\n\\n  <link rel="shortcut icon" href="\', escape=False)\nresponse.write(URL(\'static\',\'images/favicon.ico\'))\nresponse.write(\'" type="image/x-icon">\\n  <link rel="apple-touch-icon" href="\', escape=False)\nresponse.write(URL(\'static\',\'images/favicon.png\'))\nresponse.write(\'">\\n  <link rel="stylesheet" href="\', escape=False)\nresponse.write(URL(\'static\',\'css/footer.css\'))\nresponse.write(\'" type=\\\'text/css\\\'>\\n\\n  <!-- All JavaScript at the bottom, except for Modernizr which enables\\n       HTML5 elements & feature detects -->\\n  <script src="\', escape=False)\nresponse.write(URL(\'static\',\'js/modernizr.custom.js\'))\nresponse.write(\'"></script>\\n\\n  <!-- include stylesheets -->\\n  \', escape=False)\nresponse.files.insert(0,URL(\'static\',\'css/web2py.css\'))\nresponse.files.insert(0,URL(\'static\',\'css/bootstrap.css\'))\nresponse.files.insert(0,URL(\'static\',\'css/offcanvas.css\'))\nresponse.files.insert(0,URL(\'static\',\'css/untitled.css\'))\nresponse.files.insert(1,URL(\'static\',\'css/bootstrap.min.css\'))\nresponse.files.insert(2,URL(\'static\',\'css/bootstrap-responsive.min.css\'))\nresponse.files.insert(3,URL(\'static\',\'css/web2py_bootstrap.css\'))\nresponse.files.insert(3,URL(\'static\',\'css/specifications.css\'))\nresponse.write(\'\\n\\n  \', escape=False)\nresponse.write(\'<script type="text/javascript"><!--\\n    // These variables are used by the web2py_ajax_init function in web2py_ajax.js (which is loaded below).\\n    var w2p_ajax_confirm_message = "\', escape=False)\nresponse.write(T(\'Are you sure you want to delete this object?\'))\nresponse.write(\'";\\n    var w2p_ajax_disable_with_message = "\', escape=False)\nresponse.write(T(\'Working...\'))\nresponse.write(\'";\\n    var w2p_ajax_date_format = "\', escape=False)\nresponse.write(T(\'%Y-%m-%d\'))\nresponse.write(\'";\\n    var w2p_ajax_datetime_format = "\', escape=False)\nresponse.write(T(\'%Y-%m-%d %H:%M:%S\'))\nresponse.write(\'";\\n    var ajax_error_500 = \\\'\', escape=False)\nresponse.write(T.M(\'An error occured, please [[reload %s]] the page\') % URL(args=request.args, vars=request.get_vars))\nresponse.write("\'\\n    //--></script>\\n", escape=False)\nresponse.files.insert(0,URL(\'static\',\'js/jquery.js\'))\nresponse.files.insert(1,URL(\'static\',\'css/calendar.css\'))\nresponse.files.insert(2,URL(\'static\',\'js/calendar.js\'))\nresponse.files.insert(3,URL(\'static\',\'js/web2py.js\'))\nresponse.include_meta()\nresponse.include_files()\nresponse.write(\'\\n\', escape=False)\nresponse.write(\'\\n\\n  <noscript><link href="\', escape=False)\nresponse.write(URL(\'static\', \'css/web2py_bootstrap_nojs.css\'))\nresponse.write(\'" rel="stylesheet" type="text/css" /></noscript>\\n\\n  <style type="text/css">\\n    a.loser{\\n      vertical-align:middle;\\n      color:red;\\n    }\\n  </style>\\n  \', escape=False)\nresponse.write(\'\\n</head>\\n\\n\', escape=False)\nuser=request.vars[\'user\']\nresponse.write(\'\\n<body onload="makeActive()">\\n  <!-- Navbar ================================================== -->\\n  <div class="navbar navbar-inverse">\\n      <div class="container">\\n        \', escape=False)\nis_mobile=request.user_agent().is_mobile\nresponse.write(\'\\n        <!-- the next tag is necessary for bootstrap menus, do not remove -->\\n        <button type="button" class="btn btn-navbar" data-toggle="collapse" data-target=".nav-collapse" style="\', escape=False)\nresponse.write(\'display:none;\' if not is_mobile else \'\')\nresponse.write(\'">\\n          <span class="icon-bar"></span>\\n          <span class="icon-bar"></span>\\n          <span class="icon-bar"></span>\\n        </button>\\n        <ul id="navbar" class="nav pull-left">\\n          <li>\\n            \', escape=False)\nif user=="None":\n    response.write(\'\\n            <a href="index" style="font-size:20px;"><strong>PhoneStats</strong></a>\\n            \', escape=False)\nelse:\n    response.write(\'\\n            <a href=\', escape=False)\n    response.write(URL(\'index\', vars=dict(user=request.vars[\'user\'])))\n    response.write(\' style="font-size:20px;"><strong>PhoneStats</strong></a>\\n          </li>\\n        </ul>\\n        <ul id="navbar" class="nav pull-right">\\n          \', escape=False)\n    if user=="None":\n        response.write(\'\\n          <li>\\n            <a href="index.html">Home</a>\\n          </li>\\n          <li>\\n            <a href="login.html">Login</a>\\n          </li>\\n          <li>\\n            <a href="register.html">Register</a>\\n          </li>\\n          \', escape=False)\n    else:\n        response.write(\'\\n          <li>\\n            <a href=\', escape=False)\n        response.write(URL(\'index\', vars=dict(user=request.vars[\'user\'])))\n        response.write(\'>Home</a>\\n          </li>\\n          <li>\\n            <a href=\', escape=False)\n        response.write(URL(\'profile\', vars=dict(user=request.vars[\'user\'])))\n        response.write(\'>\', escape=False)\n        response.write(request.vars[\'user\'])\n        response.write(\'</a>\\n          </li>\\n          \', escape=False)\n        pass\n    response.write(\'\\n        </ul>\\n        <div class="\', escape=False)\n    response.write(\'nav-collapse\' if is_mobile else \'nav\')\n    response.write(\'">\\n        </div><!--/.nav-collapse -->\\n      </div>\\n  </div><!--/top navbar -->\\n\\n\', escape=False)\n    response.write(\'\\n<div class="container-fluid">\\n  <div class="row-fluid">\\n    \', escape=False)\n    response.write(\'\\n    <div class="span3">\\n      <div class="well sidebar-nav">\\n        <ul class="nav nav-list">\\n          <li class="nav-header">Phones</li>\\n          \', escape=False)\n    if user=="None":\n        response.write(\'\\n          <li class="active" id="1">\\n            <a href=\', escape=False)\n        response.write(URL(\'index\'))\n        response.write(\'>Top Phones</a>\\n          </li>\\n          <li id="2" onClick="makeActive(this.id)" class="">\\n            <a href="">Apple</a>\\n          </li>\\n          <li id="3">\\n            <a href=\', escape=False)\n        response.write(URL(\'products\', vars=dict(manufacturer=\'BlackBerry\')))\n        response.write(\'>Blackberry</a>\\n          </li id="4">\\n          <li>\\n            <a href=\', escape=False)\n        response.write(URL(\'products\', vars=dict(manufacturer=\'HTC\')))\n        response.write(\'>HTC</a>\\n          </li>\\n          <li>\\n            <a href=\', escape=False)\n        response.write(URL(\'products\', vars=dict(manufacturer=\'Nexus\')))\n        response.write(\'>Nexus</a>\\n          </li>\\n          <li>\\n            <a href=\', escape=False)\n        response.write(URL(\'products\', vars=dict(manufacturer=\'Nokia\')))\n        response.write(\'>Nokia</a>\\n          </li>\\n          <li>\\n            <a href=\', escape=False)\n        response.write(URL(\'products\', vars=dict(manufacturer=\'Samsung\')))\n        response.write(\'>Samsung</a>\\n          </li>\\n          <li>\\n            <a href=\', escape=False)\n        response.write(URL(\'products\', vars=dict(manufacturer=\'Sony\')))\n        response.write(\'>Sony</a>\\n          </li>\\n          \', escape=False)\n    else:\n        response.write(\'\\n          <li class="active">\\n            <a href=\', escape=False)\n        response.write(URL(\'products\', vars=dict(user=request.vars[\'user\'], manufacturer=\'TopPhones\')))\n        response.write(\'>Top Phones</a>\\n          </li>\\n          <li>\\n            <a href=\', escape=False)\n        response.write(URL(\'products\', vars=dict(user=request.vars[\'user\'], manufacturer=\'Apple\')))\n        response.write(\'>Apple</a>\\n          </li>\\n          <li>\\n            <a href=\', escape=False)\n        response.write(URL(\'products\', vars=dict(user=request.vars[\'user\'], manufacturer=\'Blackberry\')))\n        response.write(\'>Blackberry</a>\\n          </li>\\n          <li>\\n            <a href=\', escape=False)\n        response.write(URL(\'products\', vars=dict(user=request.vars[\'user\'], manufacturer=\'HTC\')))\n        response.write(\'>HTC</a>\\n          </li>\\n          <li>\\n            <a href=\', escape=False)\n        response.write(URL(\'products\', vars=dict(user=request.vars[\'user\'], manufacturer=\'Nexus\')))\n        response.write(\'>Nexus</a>\\n          </li>\\n          <li>\\n            <a href=\', escape=False)\n        response.write(URL(\'products\', vars=dict(user=request.vars[\'user\'], manufacturer=\'Nokia\')))\n        response.write(\'>Nokia</a>\\n          </li>\\n          <li>\\n            <a href=\', escape=False)\n        response.write(URL(\'products\', vars=dict(user=request.vars[\'user\'], manufacturer=\'Samsung\')))\n        response.write(\'>Samsung</a>\\n          </li>\\n          <li>\\n            <a href=\', escape=False)\n        response.write(URL(\'products\', vars=dict(user=request.vars[\'user\'], manufacturer=\'Sony\')))\n        response.write(\'>Sony</a>\\n          </li>\\n          \', escape=False)\n        pass\n    response.write(\'\\n        </ul>\\n      </div>\\n    </div>\\n    \', escape=False)\n    response.write(\'\\n\\n    <div class="span9">\\n        \', escape=False)\n    response.write(\'\\n\', escape=False)\n    response.write(\'\\n\\n\\n      <div class="row-fluid">\\n          \', escape=False)\n    response.write(\'\\n          \', escape=False)\n    response.write(\'\\n\\n\', escape=False)\n    response.write(\'\\n\', escape=False)\n    response.write(\'\\n\\n\', escape=False)\n    response.write(\'\\n\', escape=False)\n    response.write(\'\\n\\n\', escape=False)\n    for row in db().select(db.phone_id.ALL, orderby=~db.phone_id.rating):\n        response.write(\'\\n\\t\', escape=False)\n        rows = db(db.product_list.name==row.name).select()\n        response.write(\'\\n\\t\\t\', escape=False)\n        if len(rows):\n            response.write(\'\\n\\t\\t\\t\', escape=False)\n            for r in rows:\n                response.write(\'\\n\\t\\t\\t\\t\\t\', escape=False)\n                if r.imageUrl!="image" or r.name!="title" or r.description!="desc":\n                    response.write(\'\\n\\t\\t\\t\\t    <div class="row">     \\n\\t\\t\\t\\t    \\t<br/>\\n\\t\\t\\t\\t        <div class="span2">\\n\\t\\t\\t\\t        \\t\', escape=False)\n                    if not request.vars[\'user\']:\n                        response.write(\'\\n\\t\\t\\t\\t\\t\\t\\t<a class="imageLinkWrapper" href=\', escape=False)\n                        response.write(URL(\'specifications\', vars=dict(manufacturer=r.manufacturer, phone=r.name)))\n                        response.write(\'>\\n\\t\\t\\t\\t\\t\\t\\t\', escape=False)\n                    else:\n                        response.write(\'\\n\\t\\t\\t\\t\\t\\t\\t<a class="imageLinkWrapper" href=\', escape=False)\n                        response.write(URL(\'specifications\', vars=dict(manufacturer=r.manufacturer, phone=r.name, user=request.vars[\'user\'])))\n                        response.write(\'>\\n\\t\\t\\t\\t\\t\\t\\t\', escape=False)\n                        pass\n                    response.write(\'\\n\\t\\t\\t\\t\\t\\t\\t\\t<figure class=" img">\\n\\t\\t\\t\\t\\t\\t\\t\\t  \\t<img src=\', escape=False)\n                    response.write(r.imageUrl)\n                    response.write(\'></img>\\n\\t\\t\\t\\t\\t\\t\\t\\t</figure>\\n\\t\\t\\t\\t\\t\\t\\t</a>\\n\\t\\t\\t\\t\\t\\t</div>\\n\\t\\t\\t\\t        <div class="span9">\\n\\t\\t\\t\\t        \\t\', escape=False)\n                    bcd=r.name\n                    response.write(\'\\n\\t\\t\\t\\t        \\t\', escape=False)\n                    if not request.vars[\'user\']:\n                        response.write(\'\\t\\t\\t\\t        \\t\\n\\t\\t\\t\\t        \\t<a class="imageLinkWrapper" href=\', escape=False)\n                        response.write(URL(\'specifications\', vars=dict(manufacturer=r.manufacturer, phone=r.name)))\n                        response.write(\'>\\n\\t\\t\\t\\t        \\t\', escape=False)\n                    else:\n                        response.write(\'\\n\\t\\t\\t\\t        \\t<a class="imageLinkWrapper" href=\', escape=False)\n                        response.write(URL(\'specifications\', vars=dict(manufacturer=r.manufacturer, phone=r.name, user=request.vars[\'user\'])))\n                        response.write(\'>\\n\\t\\t\\t\\t        \\t\', escape=False)\n                        pass\n                    response.write(\'\\n\\t\\t\\t\\t        \\t\\t<h3>\', escape=False)\n                    response.write(bcd.strip(","))\n                    response.write(\'</h3>\\n\\t\\t\\t\\t        \\t</a>\\n\\t\\t\\t\\t        \\t<p>\', escape=False)\n                    response.write(r.description)\n                    response.write(\'</p>\\n\\t\\t\\t\\t  \\t\\t</div>\\n\\t\\t\\t\\t  \\t</div>\\n\\t\\t\\t\\t\\t\', escape=False)\n                    pass\n                response.write(\'\\n\\t\\t\\t\\t\\n\\t\\t\\t\', escape=False)\n                pass\n            response.write(\'\\n\\t\', escape=False)\n            pass\n        response.write(\'\\n\', escape=False)\n        pass\n    response.write(\'\\n          \', escape=False)\n    response.write(\'\\n      </div>\\n    </div>\\n\\n  </div>\\n</div>\\n\\n\', escape=False)\n    response.write(\'\\n\\n  <div id="footer">\\n    <ul>\\n      <li id="loser">\\n        <ul>\\n          <li>\\n            <h4>Navigation: </h4>\\n          </li>          \\n          <li>\\n            <a href="">Top Phones</a>\\n          </li>\\n          <li>\\n            <a href="">Apple</a>\\n          </li>\\n          <li>\\n            <a href="">HTC</a>\\n          </li>\\n          <li>\\n            <a href="">Nexus</a>\\n          </li>\\n          <li>\\n            <a href="">Nokia</a>\\n          </li>\\n          <li>\\n            <a href="">Samsung</a>\\n          </li>\\n          <li>\\n            <a href="">Sony</a>\\n          </li>\\n        </ul>\\n      </li>\\n      <li id="loser">\\n        <ul>\\n          <li>\\n            <h4>Follow Us:</h4>\\n          </li>\\n          <li>\\n            <img src=\', escape=False)\n    response.write(URL(\'static\',\'images/facebook.png\'))\n    response.write(\'/>\\n            <a href="">Facebook</a>\\n          </li>\\n          <li>\\n            <img src=\', escape=False)\n    response.write(URL(\'static\',\'images/twitter.png\'))\n    response.write(\'/>\\n            <a href="">Twitter</a>\\n          </li>\\n          <li>\\n            <img src=\', escape=False)\n    response.write(URL(\'static\',\'images/gplus-32.png\'))\n    response.write(\'/>\\n            <a href="">Google Plus</a>\\n          </li>\\n          <li>\\n            <img src=\', escape=False)\n    response.write(URL(\'static\',\'images/gplus-32.png\'))\n    response.write(\'/>\\n            <a href="">Some More</a>\\n          </li>\\n          <li>\\n            <img src=\', escape=False)\n    response.write(URL(\'static\',\'images/gplus-32.png\'))\n    response.write(\'/>\\n            <a href="">Some More</a>\\n          </li>\\n        </ul>\\n      </li>\\n      <li id="loser">\\n        <ul>\\n          <li>\\n            <h4>Other Links: </h4>\\n          </li>          \\n          <li>\\n            <a href="">About Us</a>\\n          </li>\\n          <li>\\n            <a href="">Contact Us</a>\\n          </li>\\n          <li>\\n            <a href="">Terms of Service</a>\\n          </li>\\n          <li>\\n            <a href="">Blog</a>\\n          </li>\\n          <li>\\n            <a href="">Team </a>\\n          </li>\\n          <li>\\n            <a href="">Partners</a>\\n          </li>\\n          <li>\\n            <a href="">Sponsors</a>\\n          </li>\\n        </ul>\\n      </li>\\n    </ul>\\n  </div>\\n\\n  <script type="text/javascript">\\n\\n    function makeActive(){\\n      id=\', escape=False)\n    response.write(request.vars[\'manufacturer\'])\n    response.write(\'\\n      document.write(id)\\n      var loader = document.getElementById(val);\\n      loader.className = "active";\\n    }\\n\\n  </script>\\n\\n  <!-- The javascript =============================================\\n       (Placed at the end of the document so the pages load faster) -->\\n  <script src="\', escape=False)\n    response.write(URL(\'static\',\'js/bootstrap.min.js\'))\n    response.write(\'"></script>\\n  <script src="\', escape=False)\n    response.write(URL(\'static\',\'js/web2py_bootstrap.js\'))\n    response.write(\'"></script>\\n  \\n  \', escape=False)\n    if response.google_analytics_id:\n        response.write(\'\\n  <script src="\', escape=False)\n        response.write(URL(\'static\',\'js/analytics.min.js\'))\n        response.write(\'"></script>\\n  <script type="text/javascript">\\n  analytics.initialize({\\n    \\\'Google Analytics\\\':{trackingId:\\\'\', escape=False)\n        response.write(response.google_analytics_id)\n        response.write("\'} \\n  });</script>\\n  ", escape=False)\n        pass\n    response.write(\'\\n  <script src="\', escape=False)\n    response.write(URL(\'static\',\'js/share.js\',vars=dict(static=URL(\'static\',\'images\'))))\n    response.write(\'"></script>\\n  <script src="\', escape=False)\n    response.write(URL(\'static\',\'js/jsapi.js\'))\n    response.write(\'"></script>\\n\\n  <script type="text/javascript">\\n      google.load("visualization", "1", {packages:["corechart"]});\\n      google.setOnLoadCallback(drawChart);\\n      function drawChart() {\\n        \', escape=False)\n    rows = db(db.phone_id.id==1).select()\n    response.write(\'\\n        \', escape=False)\n    if len(rows):\n        response.write(\'\\n          \', escape=False)\n        for r in rows:\n            response.write("\\n          var data = google.visualization.arrayToDataTable([\\n            [\'Type\', \'No. of Reviews\'],\\n            [\'Good\',     ", escape=False)\n            response.write(r.good)\n            response.write("],\\n            [\'Bad\',      ", escape=False)\n            response.write(r.bad)\n            response.write("],\\n          ]);\\n\\n          var options = {\\n            title: \'Reviews\',\\n            is3D: true,\\n          };\\n\\n          var chart = new google.visualization.PieChart(document.getElementById(\'piechart_3d\'));\\n          chart.draw(data, options);\\n          ", escape=False)\n            pass\n        response.write(\'\\n          \', escape=False)\n        pass\n    response.write(\'\\n      }\\n  </script>\\n</body>\\n</html>\', escape=False)'
p7
sS'snapshot'
p8
(dp9
S'exception'
p10
(dp11
S'__module__'
p12
S"'gluon.rocket'"
p13
sS'__getslice__'
p14
S"<method-wrapper '__getslice__' of SocketTimeout object>"
p15
sS'__str__'
p16
S"<method-wrapper '__str__' of SocketTimeout object>"
p17
sS'__reduce__'
p18
S'<built-in method __reduce__ of SocketTimeout object>'
p19
sS'__dict__'
p20
S'{}'
p21
sS'__sizeof__'
p22
S'<built-in method __sizeof__ of SocketTimeout object>'
p23
sS'__weakref__'
p24
S'None'
p25
sS'__init__'
p26
S"<method-wrapper '__init__' of SocketTimeout object>"
p27
sS'__setattr__'
p28
S"<method-wrapper '__setattr__' of SocketTimeout object>"
p29
sS'__reduce_ex__'
p30
S'<built-in method __reduce_ex__ of SocketTimeout object>'
p31
sS'__new__'
p32
S'<built-in method __new__ of type object>'
p33
sS'__format__'
p34
S'<built-in method __format__ of SocketTimeout object>'
p35
sS'__class__'
p36
S"<class 'gluon.rocket.SocketTimeout'>"
p37
sS'__doc__'
p38
S"'Exception for when a socket times out between requests.'"
p39
sS'__getitem__'
p40
S"<method-wrapper '__getitem__' of SocketTimeout object>"
p41
sS'__setstate__'
p42
S'<built-in method __setstate__ of SocketTimeout object>'
p43
sS'__getattribute__'
p44
S"<method-wrapper '__getattribute__' of SocketTimeout object>"
p45
sS'args'
p46
S"('Socket timed out before request.',)"
p47
sS'__subclasshook__'
p48
S'<built-in method __subclasshook__ of type object>'
p49
sS'__unicode__'
p50
S'<built-in method __unicode__ of SocketTimeout object>'
p51
sS'__delattr__'
p52
S"<method-wrapper '__delattr__' of SocketTimeout object>"
p53
sS'__repr__'
p54
S"<method-wrapper '__repr__' of SocketTimeout object>"
p55
sS'__hash__'
p56
S"<method-wrapper '__hash__' of SocketTimeout object>"
p57
ssS'evalue'
p58
S'Socket timed out before request.'
p59
sS'frames'
p60
(lp61
(dp62
S'file'
p63
S'/home/darshan-ubuntu/Project/web2py/gluon/rocket.py'
p64
sS'dump'
p65
(dp66
S'self'
p67
S'<WSGIWorker(Thread-11, started daemon -1352676544)>'
p68
sS'conn'
p69
S'<gluon.rocket.Connection object>'
p70
sS'self.run_app'
p71
S'<bound method WSGIWorker.run_app of <WSGIWorker(Thread-11, started daemon -1352676544)>>'
p72
ssS'lnum'
p73
I1337
sS'lines'
p74
(dp75
I1332
S'            # Enter connection serve loop'
p76
sI1333
S'            while True:'
p77
sI1334
S'                if __debug__:'
p78
sI1335
S"                    self.err_log.debug('Serving a request')"
p79
sI1336
S'                try:'
p80
sI1337
S'                    self.run_app(conn)'
p81
sI1338
S'                except:'
p82
sI1339
S'                    exc = sys.exc_info()'
p83
sI1340
S'                    handled = self._handleError(*exc)'
p84
sI1341
S'                    if handled:'
p85
ssS'call'
p86
S'(self=<WSGIWorker(Thread-11, started daemon -1352676544)>)'
p87
sS'func'
p88
S'run'
p89
sa(dp90
g63
S'/home/darshan-ubuntu/Project/web2py/gluon/rocket.py'
p91
sg65
(dp92
S'self'
p93
S'<WSGIWorker(Thread-11, started daemon -1352676544)>'
p94
sS'self.environ'
p95
S"{'HTTP_ACCEPT': 'text/html,application/xhtml+xml,application/xml;q=0.9,*/*;q=0.8', 'HTTP_ACCEPT_ENCODING': 'gzip, deflate', 'HTTP_ACCEPT_LANGUAGE': 'en-US,en;q=0.5', 'HTTP_CONNECTION': 'keep-alive', 'HTTP_COOKIE': 'registered=yes; session_id_welcome=127.0.0.1-816...in=127.0.0.1-07dc276b-06b7-45cb-9394-4b39672f2bdb', 'HTTP_HOST': '127.0.0.1:8000', 'HTTP_REFERER': 'http://127.0.0.1:8000/PhoneReviews/default/good_...manufacturer=Nexus&phone=Google+Nexus+5&user=None', 'HTTP_USER_AGENT': 'Mozilla/5.0 (X11; Ubuntu; Linux i686; rv:27.0) Gecko/20100101 Firefox/27.0', 'PATH_INFO': '/PhoneReviews/default/index', 'QUERY_STRING': '', ...}"
p96
sS'sock_file'
p97
S'<socket._fileobject object>'
p98
sS'environ'
p99
S'undefined'
p100
sS'self.build_environ'
p101
S'<bound method WSGIWorker.build_environ of <WSGIWorker(Thread-11, started daemon -1352676544)>>'
p102
sS'conn'
p103
S'<gluon.rocket.Connection object>'
p104
ssg73
I1830
sg74
(dp105
I1825
S'        else:'
p106
sI1826
S'            sock_file = conn.makefile(BUF_SIZE)'
p107
sI1827
S''
sI1828
S'        try:'
p108
sI1829
S'            # Read the headers and build our WSGI environment'
p109
sI1830
S'            self.environ = environ = self.build_environ(sock_file, conn)'
p110
sI1831
S''
sI1832
S'            # Handle 100 Continue'
p111
sI1833
S"            if environ.get('HTTP_EXPECT', '') == '100-continue':"
p112
sI1834
S"                res = environ['SERVER_PROTOCOL'] + ' 100 Continue\\r\\n\\r\\n'"
p113
ssg86
S'(self=<WSGIWorker(Thread-11, started daemon -1352676544)>, conn=<gluon.rocket.Connection object>)'
p114
sg88
S'run_app'
p115
sa(dp116
g63
S'/home/darshan-ubuntu/Project/web2py/gluon/rocket.py'
p117
sg65
(dp118
S'sock_file'
p119
S'<socket._fileobject object>'
p120
sS'self.read_request_line'
p121
S'<bound method WSGIWorker.read_request_line of <WSGIWorker(Thread-11, started daemon -1352676544)>>'
p122
sS'self'
p123
S'<WSGIWorker(Thread-11, started daemon -1352676544)>'
p124
sS'request'
p125
g100
ssg73
I1650
sg74
(dp126
I1645
S'                                      "wsgiorg.futures": executor.futures})'
p127
sI1646
S''
sI1647
S'    def build_environ(self, sock_file, conn):'
p128
sI1648
S'        """ Build the execution environment. """'
p129
sI1649
S'        # Grab the request line'
p130
sI1650
S'        request = self.read_request_line(sock_file)'
p131
sI1651
S''
sI1652
S'        # Copy the Base Environment'
p132
sI1653
S'        environ = self.base_environ.copy()'
p133
sI1654
S''
ssg86
S'(self=<WSGIWorker(Thread-11, started daemon -1352676544)>, sock_file=<socket._fileobject object>, conn=<gluon.rocket.Connection object>)'
p134
sg88
S'build_environ'
p135
sa(dp136
g63
S'/home/darshan-ubuntu/Project/web2py/gluon/rocket.py'
p137
sg65
(dp138
S'global SocketTimeout'
p139
S"<class 'gluon.rocket.SocketTimeout'>"
p140
ssg73
I1401
sg74
(dp141
I1396
S''
sI1397
S'                d = sock_file.readline()'
p142
sI1398
S'                if PY3K:'
p143
sI1399
S"                    d = d.decode('ISO-8859-1')"
p144
sI1400
S'        except socket.timeout:'
p145
sI1401
S"            raise SocketTimeout('Socket timed out before request.')"
p146
sI1402
S'        except TypeError:'
p147
sI1403
S'            raise SocketClosed('
p148
sI1404
S"                'SSL bug caused closure of socket.  See '"
p149
sI1405
S'                \'"https://groups.google.com/d/topic/web2py/P_Gw0JxWzCs".\')'
p150
ssg86
S'(self=<WSGIWorker(Thread-11, started daemon -1352676544)>, sock_file=<socket._fileobject object>)'
p151
sg88
S'read_request_line'
p152
sasS'pyver'
p153
S'Python 2.7.5+: /usr/bin/python (prefix: /usr)'
p154
sS'etype'
p155
S"<class 'gluon.rocket.SocketTimeout'>"
p156
sS'date'
p157
S'Sat May  3 17:09:38 2014'
p158
sS'locals'
p159
(dp160
S'sock_file'
p161
S'<socket._fileobject object>'
p162
sS'self'
p163
S'<WSGIWorker(Thread-11, started daemon -1352676544)>'
p164
sssS'traceback'
p165
S'Traceback (most recent call last):\n  File "/home/darshan-ubuntu/Project/web2py/gluon/rocket.py", line 1337, in run\n    self.run_app(conn)\n  File "/home/darshan-ubuntu/Project/web2py/gluon/rocket.py", line 1830, in run_app\n    self.environ = environ = self.build_environ(sock_file, conn)\n  File "/home/darshan-ubuntu/Project/web2py/gluon/rocket.py", line 1650, in build_environ\n    request = self.read_request_line(sock_file)\n  File "/home/darshan-ubuntu/Project/web2py/gluon/rocket.py", line 1401, in read_request_line\n    raise SocketTimeout(\'Socket timed out before request.\')\nSocketTimeout: Socket timed out before request.\n'
p166
s.