(dp1
S'output'
p2
S"<type 'exceptions.TypeError'> id() takes exactly one argument (0 given)"
p3
sS'layer'
p4
S'/home/darshan-ubuntu/Project/web2py/applications/PhoneReviews/views/default/index.html'
p5
sS'code'
p6
S'response.write(\'<!DOCTYPE html>\\n<html class="no-js" lang="\', escape=False)\nresponse.write(T.accepted_language or \'en\')\nresponse.write(\'"> \\n<head>\\n<title>\', escape=False)\nresponse.write(response.title or request.application)\nresponse.write(\'</title>\\n  <meta charset="utf-8" />\\n    <meta name="application-name" content="\', escape=False)\nresponse.write(request.application)\nresponse.write(\'" />\\n\\n  <link rel="shortcut icon" href="\', escape=False)\nresponse.write(URL(\'static\',\'images/favicon.ico\'))\nresponse.write(\'" type="image/x-icon">\\n  <link rel="apple-touch-icon" href="\', escape=False)\nresponse.write(URL(\'static\',\'images/favicon.png\'))\nresponse.write(\'">\\n  <link rel="stylesheet" href="\', escape=False)\nresponse.write(URL(\'static\',\'css/footer.css\'))\nresponse.write(\'" type=\\\'text/css\\\'>\\n\\n  <!-- All JavaScript at the bottom, except for Modernizr which enables\\n       HTML5 elements & feature detects -->\\n  <script src="\', escape=False)\nresponse.write(URL(\'static\',\'js/modernizr.custom.js\'))\nresponse.write(\'"></script>\\n\\n  <!-- include stylesheets -->\\n  \', escape=False)\nresponse.files.insert(0,URL(\'static\',\'css/web2py.css\'))\nresponse.files.insert(0,URL(\'static\',\'css/bootstrap.css\'))\nresponse.files.insert(0,URL(\'static\',\'css/offcanvas.css\'))\nresponse.files.insert(0,URL(\'static\',\'css/untitled.css\'))\nresponse.files.insert(1,URL(\'static\',\'css/bootstrap.min.css\'))\nresponse.files.insert(2,URL(\'static\',\'css/bootstrap-responsive.min.css\'))\nresponse.files.insert(3,URL(\'static\',\'css/web2py_bootstrap.css\'))\nresponse.files.insert(3,URL(\'static\',\'css/specifications.css\'))\nresponse.write(\'\\n\\n  \', escape=False)\nresponse.write(\'<script type="text/javascript"><!--\\n    // These variables are used by the web2py_ajax_init function in web2py_ajax.js (which is loaded below).\\n    var w2p_ajax_confirm_message = "\', escape=False)\nresponse.write(T(\'Are you sure you want to delete this object?\'))\nresponse.write(\'";\\n    var w2p_ajax_disable_with_message = "\', escape=False)\nresponse.write(T(\'Working...\'))\nresponse.write(\'";\\n    var w2p_ajax_date_format = "\', escape=False)\nresponse.write(T(\'%Y-%m-%d\'))\nresponse.write(\'";\\n    var w2p_ajax_datetime_format = "\', escape=False)\nresponse.write(T(\'%Y-%m-%d %H:%M:%S\'))\nresponse.write(\'";\\n    var ajax_error_500 = \\\'\', escape=False)\nresponse.write(T.M(\'An error occured, please [[reload %s]] the page\') % URL(args=request.args, vars=request.get_vars))\nresponse.write("\'\\n    //--></script>\\n", escape=False)\nresponse.files.insert(0,URL(\'static\',\'js/jquery.js\'))\nresponse.files.insert(1,URL(\'static\',\'css/calendar.css\'))\nresponse.files.insert(2,URL(\'static\',\'js/calendar.js\'))\nresponse.files.insert(3,URL(\'static\',\'js/web2py.js\'))\nresponse.include_meta()\nresponse.include_files()\nresponse.write(\'\\n\', escape=False)\nresponse.write(\'\\n\\n  <noscript><link href="\', escape=False)\nresponse.write(URL(\'static\', \'css/web2py_bootstrap_nojs.css\'))\nresponse.write(\'" rel="stylesheet" type="text/css" /></noscript>\\n\\n  <script type="text/javascript">\\n    function fun()\\n    {\\n      var arra = new Array();\\n      \', escape=False)\nif id:\n    response.write(\'\\n      \', escape=False)\n    rows = db(db.phone_images.phone_id==id).select(db.phone_images.images)\n    response.write(\'\\n      \', escape=False)\n    pass\nresponse.write(\'\\n      \', escape=False)\nif len(rows):\n    response.write(\'\\n      \', escape=False)\n    for r in rows:\n        response.write(\'\\n        var str="\', escape=False)\n        response.write(r.images)\n        response.write(\'";\\n        arra.push(str);\\n      \', escape=False)\n        pass\n    response.write(\'\\n      var id;\\n      var c=document.getElementsByClassName ("change");\\n      for (var i = 0; i < c.length; ++i) {\\n        var item = c[i];  \\n        id = item.id;\\n        item.id=String((Number(id)%(arra.length-1) + 1));\\n        item.src=arra[Number(item.id)];\\n      }\\n      \', escape=False)\n    pass\nresponse.write(\'\\n    }\\n  </script>\\n\\n  <style type="text/css">\\n    a.loser{\\n      vertical-align:middle;\\n      color:red;\\n    }\\n  </style>\\n  \', escape=False)\nresponse.write(\'\\n</head>\\n\\n<body onload="makeActive()">\\n  <!-- Navbar ================================================== -->\\n  <div class="navbar navbar-inverse">\\n      <div class="container">\\n        \', escape=False)\nis_mobile=request.user_agent().is_mobile\nresponse.write(\'\\n        <!-- the next tag is necessary for bootstrap menus, do not remove -->\\n        <button type="button" class="btn btn-navbar" data-toggle="collapse" data-target=".nav-collapse" style="\', escape=False)\nresponse.write(\'display:none;\' if not is_mobile else \'\')\nresponse.write(\'">\\n          <span class="icon-bar"></span>\\n          <span class="icon-bar"></span>\\n          <span class="icon-bar"></span>\\n        </button>\\n        <ul id="navbar" class="nav pull-left">\\n          <li>\\n            <a href="#" style="font-size:20px;"><strong>PhoneStats</strong></a>\\n          </li>\\n          <li>\\n            <form class="navbar-form">\\n              <input class="form-control" type="text" placeholder="Search...">\\n            </form>\\n          </li>\\n        </ul>\\n        <ul id="navbar" class="nav pull-right">\\n          \', escape=False)\nif not request.vars[\'user\']:\n    response.write(\'\\n          <li>\\n            <a href="index.html">Home</a>\\n          </li>\\n          <li>\\n            <a href="login.html">Login</a>\\n          </li>\\n          <li>\\n            <a href="register.html">Register</a>\\n          </li>\\n          \', escape=False)\nelse:\n    response.write(\'\\n          <li>\\n            <a href=\', escape=False)\n    response.write(URL(\'index\', vars=dict(user=request.vars[\'user\'])))\n    response.write(\'>Home</a>\\n          </li>\\n          <li>\\n            <a href=\', escape=False)\n    response.write(URL(\'profile\', vars=dict(user=request.vars[\'user\'])))\n    response.write(\'>\', escape=False)\n    response.write(request.vars[\'user\'])\n    response.write(\'</a>\\n          </li>\\n          \', escape=False)\n    pass\nresponse.write(\'\\n        </ul>\\n        <div class="\', escape=False)\nresponse.write(\'nav-collapse\' if is_mobile else \'nav\')\nresponse.write(\'">\\n        </div><!--/.nav-collapse -->\\n      </div>\\n  </div><!--/top navbar -->\\n\\n\', escape=False)\nresponse.write(\'\\n<div class="container-fluid">\\n  <div class="row-fluid">\\n    \', escape=False)\nresponse.write(\'\\n    <div class="span3">\\n      <div class="well sidebar-nav">\\n        <ul class="nav nav-list">\\n          <li class="nav-header">Phones</li>\\n          \', escape=False)\nif not request.vars[\'user\']:\n    response.write(\'\\n          <li class="active" id="1">\\n            <a href=\', escape=False)\n    response.write(URL(\'index\'))\n    response.write(\'>Top Phones</a>\\n          </li>\\n          <li id="2" onClick="makeActive(this.id)" class="">\\n            <a href="">Apple</a>\\n          </li>\\n          <li id="3">\\n            <a href=\', escape=False)\n    response.write(URL(\'products\', vars=dict(manufacturer=\'BlackBerry\')))\n    response.write(\'>Blackberry</a>\\n          </li id="4">\\n          <li>\\n            <a href=\', escape=False)\n    response.write(URL(\'products\', vars=dict(manufacturer=\'HTC\')))\n    response.write(\'>HTC</a>\\n          </li>\\n          <li>\\n            <a href=\', escape=False)\n    response.write(URL(\'products\', vars=dict(manufacturer=\'Nexus\')))\n    response.write(\'>Nexus</a>\\n          </li>\\n          <li>\\n            <a href=\', escape=False)\n    response.write(URL(\'products\', vars=dict(manufacturer=\'Nokia\')))\n    response.write(\'>Nokia</a>\\n          </li>\\n          <li>\\n            <a href=\', escape=False)\n    response.write(URL(\'products\', vars=dict(manufacturer=\'Samsung\')))\n    response.write(\'>Samsung</a>\\n          </li>\\n          <li>\\n            <a href=\', escape=False)\n    response.write(URL(\'products\', vars=dict(manufacturer=\'Sony\')))\n    response.write(\'>Sony</a>\\n          </li>\\n          \', escape=False)\nelse:\n    response.write(\'\\n          <li class="active">\\n            <a href=\', escape=False)\n    response.write(URL(\'products\', vars=dict(user=request.vars[\'user\'], manufacturer=\'TopPhones\')))\n    response.write(\'>Top Phones</a>\\n          </li>\\n          <li>\\n            <a href=\', escape=False)\n    response.write(URL(\'products\', vars=dict(user=request.vars[\'user\'], manufacturer=\'Apple\')))\n    response.write(\'>Apple</a>\\n          </li>\\n          <li>\\n            <a href=\', escape=False)\n    response.write(URL(\'products\', vars=dict(user=request.vars[\'user\'], manufacturer=\'Blackberry\')))\n    response.write(\'>Blackberry</a>\\n          </li>\\n          <li>\\n            <a href=\', escape=False)\n    response.write(URL(\'products\', vars=dict(user=request.vars[\'user\'], manufacturer=\'HTC\')))\n    response.write(\'>HTC</a>\\n          </li>\\n          <li>\\n            <a href=\', escape=False)\n    response.write(URL(\'products\', vars=dict(user=request.vars[\'user\'], manufacturer=\'Nexus\')))\n    response.write(\'>Nexus</a>\\n          </li>\\n          <li>\\n            <a href=\', escape=False)\n    response.write(URL(\'products\', vars=dict(user=request.vars[\'user\'], manufacturer=\'Nokia\')))\n    response.write(\'>Nokia</a>\\n          </li>\\n          <li>\\n            <a href=\', escape=False)\n    response.write(URL(\'products\', vars=dict(user=request.vars[\'user\'], manufacturer=\'Samsung\')))\n    response.write(\'>Samsung</a>\\n          </li>\\n          <li>\\n            <a href=\', escape=False)\n    response.write(URL(\'products\', vars=dict(user=request.vars[\'user\'], manufacturer=\'Sony\')))\n    response.write(\'>Sony</a>\\n          </li>\\n          \', escape=False)\n    pass\nresponse.write(\'\\n        </ul>\\n      </div>\\n    </div>\\n    \', escape=False)\nresponse.write(\'\\n\\n    <div class="span9">\\n        \', escape=False)\nresponse.write(\'\\n\', escape=False)\nresponse.write(\'\\n\\n\\n      <div class="row-fluid">\\n          \', escape=False)\nresponse.write(\'\\n          \', escape=False)\nresponse.write(\'\\n\\n\', escape=False)\nresponse.write(\'\\n\\n\', escape=False)\nresponse.write(\'\\n\', escape=False)\nresponse.write(\'\\n\\n\', escape=False)\nresponse.write(\'\\n\', escape=False)\nresponse.write(\'\\n\\n\', escape=False)\nfor row in db().select(db.phone_id.ALL, orderby=~db.phone_id.rating):\n    response.write(\'\\n\\t\', escape=False)\n    rows = db(db.product_list.name==row.name).select()\n    response.write(\'\\n\\t\\t\', escape=False)\n    if len(rows):\n        response.write(\'\\n\\t\\t\\t\', escape=False)\n        for r in rows:\n            response.write(\'\\n\\t\\t\\t\\t\\t\', escape=False)\n            if r.imageUrl!="image" or r.name!="title" or r.description!="desc":\n                response.write(\'\\n\\t\\t\\t\\t    <div class="row">     \\n\\t\\t\\t\\t    \\t<br/>\\n\\t\\t\\t\\t        <div class="span2">\\n\\t\\t\\t\\t        \\t\', escape=False)\n                if not request.vars[\'user\']:\n                    response.write(\'\\n\\t\\t\\t\\t\\t\\t\\t<a class="imageLinkWrapper" href=\', escape=False)\n                    response.write(URL(\'specifications\', vars=dict(manufacturer=r.manufacturer, phone=r.name)))\n                    response.write(\'>\\n\\t\\t\\t\\t\\t\\t\\t\', escape=False)\n                else:\n                    response.write(\'\\n\\t\\t\\t\\t\\t\\t\\t<a class="imageLinkWrapper" href=\', escape=False)\n                    response.write(URL(\'specifications\', vars=dict(manufacturer=r.manufacturer, phone=r.name, user=request.vars[\'user\'])))\n                    response.write(\'>\\n\\t\\t\\t\\t\\t\\t\\t\', escape=False)\n                    pass\n                response.write(\'\\n\\t\\t\\t\\t\\t\\t\\t\\t<figure class=" img">\\n\\t\\t\\t\\t\\t\\t\\t\\t  \\t<img src=\', escape=False)\n                response.write(r.imageUrl)\n                response.write(\'></img>\\n\\t\\t\\t\\t\\t\\t\\t\\t</figure>\\n\\t\\t\\t\\t\\t\\t\\t</a>\\n\\t\\t\\t\\t\\t\\t</div>\\n\\t\\t\\t\\t        <div class="span9">\\n\\t\\t\\t\\t        \\t\', escape=False)\n                bcd=r.name\n                response.write(\'\\n\\t\\t\\t\\t        \\t\', escape=False)\n                if not request.vars[\'user\']:\n                    response.write(\'\\t\\t\\t\\t        \\t\\n\\t\\t\\t\\t        \\t<a class="imageLinkWrapper" href=\', escape=False)\n                    response.write(URL(\'specifications\', vars=dict(manufacturer=r.manufacturer, phone=r.name)))\n                    response.write(\'>\\n\\t\\t\\t\\t        \\t\', escape=False)\n                else:\n                    response.write(\'\\n\\t\\t\\t\\t        \\t<a class="imageLinkWrapper" href=\', escape=False)\n                    response.write(URL(\'specifications\', vars=dict(manufacturer=r.manufacturer, phone=r.name, user=request.vars[\'user\'])))\n                    response.write(\'>\\n\\t\\t\\t\\t        \\t\', escape=False)\n                    pass\n                response.write(\'\\n\\t\\t\\t\\t        \\t\\t<h3>\', escape=False)\n                response.write(bcd.strip(","))\n                response.write(\'</h3>\\n\\t\\t\\t\\t        \\t</a>\\n\\t\\t\\t\\t        \\t<p>\', escape=False)\n                response.write(r.description)\n                response.write(\'</p>\\n\\t\\t\\t\\t  \\t\\t</div>\\n\\t\\t\\t\\t  \\t</div>\\n\\t\\t\\t\\t\\t\', escape=False)\n                pass\n            response.write(\'\\n\\t\\t\\t\\t\\n\\t\\t\\t\', escape=False)\n            pass\n        response.write(\'\\n\\t\', escape=False)\n        pass\n    response.write(\'\\n\', escape=False)\n    pass\nresponse.write(\'\\n          \', escape=False)\nresponse.write(\'\\n      </div>\\n    </div>\\n\\n  </div>\\n</div>\\n\\n  <div id="footer">\\n    <ul>\\n      <li id="loser">\\n        <ul>\\n          <li>\\n            <h4>Navigation: </h4>\\n            <br/>\\n          </li>          \\n          <li>\\n            <a href="">Top Phones</a>\\n          </li>\\n          <li>\\n            <a href="">Apple</a>\\n          </li>\\n          <li>\\n            <a href="">HTC</a>\\n          </li>\\n          <li>\\n            <a href="">Nexus</a>\\n          </li>\\n          <li>\\n            <a href="">Nokia</a>\\n          </li>\\n          <li>\\n            <a href="">Samsung</a>\\n          </li>\\n          <li>\\n            <a href="">Sony</a>\\n          </li>\\n        </ul>\\n      </li>\\n      <li id="loser">\\n        <ul>\\n          <li>\\n            <h4>Follow Us:</h4>\\n            <br/>\\n          </li>\\n          <li>\\n            <img src=\', escape=False)\nresponse.write(URL(\'static\',\'images/facebook.png\'))\nresponse.write(\'/>\\n            <a href="">Facebook</a>\\n          </li>\\n          <li>\\n            <img src=\', escape=False)\nresponse.write(URL(\'static\',\'images/twitter.png\'))\nresponse.write(\'/>\\n            <a href="">Twitter</a>\\n          </li>\\n          <li>\\n            <img src=\', escape=False)\nresponse.write(URL(\'static\',\'images/gplus-32.png\'))\nresponse.write(\'/>\\n            <a href="">Google Plus</a>\\n          </li>\\n          <li>\\n            <img src=\', escape=False)\nresponse.write(URL(\'static\',\'images/gplus-32.png\'))\nresponse.write(\'/>\\n            <a href="">Some More</a>\\n          </li>\\n          <li>\\n            <img src=\', escape=False)\nresponse.write(URL(\'static\',\'images/gplus-32.png\'))\nresponse.write(\'/>\\n            <a href="">Some More</a>\\n          </li>\\n        </ul>\\n      </li>\\n      <li id="loser">\\n        <ul style:"border-right: 0px solid gray;">\\n          <li>\\n            <h4>Other Links: </h4>\\n            <br/>\\n          </li>          \\n          <li>\\n            <a href="">About Us</a>\\n          </li>\\n          <li>\\n            <a href="">Contact Us</a>\\n          </li>\\n          <li>\\n            <a href="">Terms of Service</a>\\n          </li>\\n          <li>\\n            <a href="">Blog</a>\\n          </li>\\n          <li>\\n            <a href="">Team </a>\\n          </li>\\n          <li>\\n            <a href="">Partners</a>\\n          </li>\\n          <li>\\n            <a href="">Sponsors</a>\\n          </li>\\n        </ul>\\n      </li>\\n    </ul>\\n  </div>\\n\', escape=False)\nresponse.write(\'\\n\\n  <script type="text/javascript">\\n\\n    function makeActive(){\\n      id=\', escape=False)\nresponse.write(request.vars[\'manufacturer\'])\nresponse.write(\'\\n      document.write(id)\\n      var loader = document.getElementById(val);\\n      loader.className = "active";\\n    }\\n\\n  </script>\\n\\n  <!-- The javascript =============================================\\n       (Placed at the end of the document so the pages load faster) -->\\n  <script src="\', escape=False)\nresponse.write(URL(\'static\',\'js/bootstrap.min.js\'))\nresponse.write(\'"></script>\\n  <script src="\', escape=False)\nresponse.write(URL(\'static\',\'js/web2py_bootstrap.js\'))\nresponse.write(\'"></script>\\n  \\n  \', escape=False)\nif response.google_analytics_id:\n    response.write(\'\\n  <script src="\', escape=False)\n    response.write(URL(\'static\',\'js/analytics.min.js\'))\n    response.write(\'"></script>\\n  <script type="text/javascript">\\n  analytics.initialize({\\n    \\\'Google Analytics\\\':{trackingId:\\\'\', escape=False)\n    response.write(response.google_analytics_id)\n    response.write("\'} \\n  });</script>\\n  ", escape=False)\n    pass\nresponse.write(\'\\n  <script src="\', escape=False)\nresponse.write(URL(\'static\',\'js/share.js\',vars=dict(static=URL(\'static\',\'images\'))))\nresponse.write(\'"></script>\\n  <script src="\', escape=False)\nresponse.write(URL(\'static\',\'js/jsapi.js\'))\nresponse.write(\'"></script>\\n\\n  <script type="text/javascript">\\n      google.load("visualization", "1", {packages:["corechart"]});\\n      google.setOnLoadCallback(drawChart);\\n      function drawChart() {\\n        \', escape=False)\nrows = db(db.phone_id.id==1).select()\nresponse.write(\'\\n        \', escape=False)\nif len(rows):\n    response.write(\'\\n          \', escape=False)\n    for r in rows:\n        response.write("\\n          var data = google.visualization.arrayToDataTable([\\n            [\'Type\', \'No. of Reviews\'],\\n            [\'Good\',     ", escape=False)\n        response.write(r.good)\n        response.write("],\\n            [\'Bad\',      ", escape=False)\n        response.write(r.bad)\n        response.write("],\\n          ]);\\n\\n          var options = {\\n            title: \'Reviews\',\\n            is3D: true,\\n          };\\n\\n          var chart = new google.visualization.PieChart(document.getElementById(\'piechart_3d\'));\\n          chart.draw(data, options);\\n          ", escape=False)\n        pass\n    response.write(\'\\n          \', escape=False)\n    pass\nresponse.write(\'\\n      }\\n  </script>\\n</body>\\n</html>\', escape=False)'
p7
sS'snapshot'
p8
(dp9
sS'traceback'
p10
S'Traceback (most recent call last):\n  File "/home/darshan-ubuntu/Project/web2py/gluon/restricted.py", line 220, in restricted\n    exec ccode in environment\n  File "/home/darshan-ubuntu/Project/web2py/applications/PhoneReviews/views/default/index.html", line 48, in <module>\n  File "/home/darshan-ubuntu/Project/web2py/gluon/dal.py", line 10568, in select\n    return adapter.select(self.query,fields,attributes)\n  File "/home/darshan-ubuntu/Project/web2py/gluon/dal.py", line 1869, in select\n    sql = self._select(query, fields, attributes)\n  File "/home/darshan-ubuntu/Project/web2py/gluon/dal.py", line 1774, in _select\n    sql_w = \' WHERE \' + self.expand(query) if query else \'\'\n  File "/home/darshan-ubuntu/Project/web2py/gluon/dal.py", line 1541, in expand\n    out = op(first, second, **optional_args)\n  File "/home/darshan-ubuntu/Project/web2py/gluon/dal.py", line 1438, in EQ\n    self.expand(second, first.type))\n  File "/home/darshan-ubuntu/Project/web2py/gluon/dal.py", line 1552, in expand\n    return str(self.represent(expression,field_type))\n  File "/home/darshan-ubuntu/Project/web2py/gluon/dal.py", line 1974, in represent\n    obj = obj()\nTypeError: id() takes exactly one argument (0 given)\n'
p11
s.