(dp1
S'output'
p2
S'<class \'_mysql_exceptions.ProgrammingError\'> (1146, "Table \'phone_reviews.productList\' doesn\'t exist")'
p3
sS'layer'
p4
S'/home/darshan-ubuntu/Project/web2py/applications/PhoneReviews/views/default/products.html'
p5
sS'code'
p6
S'abc=request.vars[\'manufacturer\']\nresponse.write(\'\\n\', escape=False)\nleft_sidebar_enabled=True,right_sidebar_enabled=False,(\'message\' in globals())\nresponse.write(\'\\n\', escape=False)\nresponse.write(\'<!--[if HTML5]><![endif]-->\\n<!DOCTYPE html>\\n<!-- paulirish.com/2008/conditional-stylesheets-vs-css-hacks-answer-neither/ -->\\n<!--[if lt IE 7]><html class="ie ie6 ie-lte9 ie-lte8 ie-lte7 no-js" lang="\', escape=False)\nresponse.write(T.accepted_language or \'en\')\nresponse.write(\'"> <![endif]-->\\n<!--[if IE 7]><html class="ie ie7 ie-lte9 ie-lte8 ie-lte7 no-js" lang="\', escape=False)\nresponse.write(T.accepted_language or \'en\')\nresponse.write(\'"> <![endif]-->\\n<!--[if IE 8]><html class="ie ie8 ie-lte9 ie-lte8 no-js" lang="\', escape=False)\nresponse.write(T.accepted_language or \'en\')\nresponse.write(\'"> <![endif]-->\\n<!--[if IE 9]><html class="ie9 ie-lte9 no-js" lang="\', escape=False)\nresponse.write(T.accepted_language or \'en\')\nresponse.write(\'"> <![endif]-->\\n<!--[if (gt IE 9)|!(IE)]><!--> <html class="no-js" lang="\', escape=False)\nresponse.write(T.accepted_language or \'en\')\nresponse.write(\'"> <!--<![endif]-->\\n<head>\\n<title>\', escape=False)\nresponse.write(response.title or request.application)\nresponse.write(\'</title>\\n  <!--[if !HTML5]>\\n      <meta http-equiv="X-UA-Compatible" content="IE=edge\', escape=False)\nresponse.write(not request.is_local and \',chrome=1\' or \'\')\nresponse.write(\'">\\n  <![endif]-->\\n  <!-- www.phpied.com/conditional-comments-block-downloads/ -->\\n  <!-- Always force latest IE rendering engine\\n       (even in intranet) & Chrome Frame\\n       Remove this if you use the .htaccess -->\\n\\t   \\n  <meta charset="utf-8" />\\n\\n  <!-- http://dev.w3.org/html5/markup/meta.name.html -->\\n  <meta name="application-name" content="\', escape=False)\nresponse.write(request.application)\nresponse.write(\'" />\\n\\n  <!-- Speaking of Google, don\\\'t forget to set your site up:\\n       http://google.com/webmasters -->\\n  <meta name="google-site-verification" content="" />\\n\\n  <!--  Mobile Viewport Fix\\n        j.mp/mobileviewport & davidbcalhoun.com/2010/viewport-metatag\\n        device-width: Occupy full width of the screen in its current orientation\\n        initial-scale = 1.0 retains dimensions instead of zooming out if page height > device height\\n        user-scalable = yes allows the user to zoom in -->\\n  <meta name="viewport" content="width=device-width, initial-scale=1.0" />\\n\\n  <link rel="shortcut icon" href="\', escape=False)\nresponse.write(URL(\'static\',\'images/favicon.ico\'))\nresponse.write(\'" type="image/x-icon">\\n  <link rel="apple-touch-icon" href="\', escape=False)\nresponse.write(URL(\'static\',\'images/favicon.png\'))\nresponse.write(\'">\\n  <link rel="stylesheet" href="\', escape=False)\nresponse.write(URL(\'static\',\'css/style.css\'))\nresponse.write(\'" type=\\\'text/css\\\'>\\n\\n  <!-- All JavaScript at the bottom, except for Modernizr which enables\\n       HTML5 elements & feature detects -->\\n  <script src="\', escape=False)\nresponse.write(URL(\'static\',\'js/modernizr.custom.js\'))\nresponse.write(\'"></script>\\n\\n  <!-- include stylesheets -->\\n  \', escape=False)\nresponse.files.insert(0,URL(\'static\',\'css/web2py.css\'))\nresponse.files.insert(0,URL(\'static\',\'css/bootstrap.css\'))\nresponse.files.insert(0,URL(\'static\',\'css/offcanvas.css\'))\nresponse.files.insert(0,URL(\'static\',\'css/untitled.css\'))\nresponse.files.insert(1,URL(\'static\',\'css/bootstrap.min.css\'))\nresponse.files.insert(2,URL(\'static\',\'css/bootstrap-responsive.min.css\'))\nresponse.files.insert(3,URL(\'static\',\'css/web2py_bootstrap.css\'))\nresponse.write(\'\\n\\n  \', escape=False)\nresponse.write(\'<script type="text/javascript"><!--\\n    // These variables are used by the web2py_ajax_init function in web2py_ajax.js (which is loaded below).\\n    var w2p_ajax_confirm_message = "\', escape=False)\nresponse.write(T(\'Are you sure you want to delete this object?\'))\nresponse.write(\'";\\n    var w2p_ajax_disable_with_message = "\', escape=False)\nresponse.write(T(\'Working...\'))\nresponse.write(\'";\\n    var w2p_ajax_date_format = "\', escape=False)\nresponse.write(T(\'%Y-%m-%d\'))\nresponse.write(\'";\\n    var w2p_ajax_datetime_format = "\', escape=False)\nresponse.write(T(\'%Y-%m-%d %H:%M:%S\'))\nresponse.write(\'";\\n    var ajax_error_500 = \\\'\', escape=False)\nresponse.write(T.M(\'An error occured, please [[reload %s]] the page\') % URL(args=request.args, vars=request.get_vars))\nresponse.write("\'\\n    //--></script>\\n", escape=False)\nresponse.files.insert(0,URL(\'static\',\'js/jquery.js\'))\nresponse.files.insert(1,URL(\'static\',\'css/calendar.css\'))\nresponse.files.insert(2,URL(\'static\',\'js/calendar.js\'))\nresponse.files.insert(3,URL(\'static\',\'js/web2py.js\'))\nresponse.include_meta()\nresponse.include_files()\nresponse.write(\'\\n\', escape=False)\nresponse.write(\'\\n\\n  \', escape=False)\n# using sidebars need to know what sidebar you want to use\nleft_sidebar_enabled = globals().get(\'left_sidebar_enabled\',False)\nright_sidebar_enabled = globals().get(\'right_sidebar_enabled\',False)\nmiddle_columns = {0:\'span12\',1:\'span9\',2:\'span9\'}[(left_sidebar_enabled and 1 or 0)+(right_sidebar_enabled and 1 or 0)]\nresponse.write(\'\\n\\n  <!-- uncomment here to load jquery-ui\\n       <link rel="stylesheet" href="http://ajax.googleapis.com/ajax/libs/jqueryui/1.10.3/themes/ui-lightness/jquery-ui.css" type="text/css" media="all" />\\n       <script src="http://ajax.googleapis.com/ajax/libs/jqueryui/1.10.3/jquery-ui.min.js" type="text/javascript"></script>\\n       uncomment to load jquery-ui //-->\\n  <noscript><link href="\', escape=False)\nresponse.write(URL(\'static\', \'css/web2py_bootstrap_nojs.css\'))\nresponse.write(\'" rel="stylesheet" type="text/css" /></noscript>\\n\\n  <style type="text/css">\\n    a.loser{\\n      vertical-align:middle;\\n      color:red;\\n    }\\n  </style>\\n  \', escape=False)\nresponse.write(\'\\n</head>\\n\\n<body>\\n  <!-- Navbar ================================================== -->\\n  <div class="navbar navbar-inverse">\\n      <div class="container">\\n        \', escape=False)\nis_mobile=request.user_agent().is_mobile\nresponse.write(\'\\n        <!-- the next tag is necessary for bootstrap menus, do not remove -->\\n        <button type="button" class="btn btn-navbar" data-toggle="collapse" data-target=".nav-collapse" style="\', escape=False)\nresponse.write(\'display:none;\' if not is_mobile else \'\')\nresponse.write(\'">\\n          <span class="icon-bar"></span>\\n          <span class="icon-bar"></span>\\n          <span class="icon-bar"></span>\\n        </button>\\n        <ul id="navbar" class="nav pull-left">\\n          <li>\\n            <a href="#" style="font-size:20px;"><strong>Phone Reviews</strong></a>\\n          </li>\\n          <li>\\n            <form class="navbar-form">\\n              <input class="form-control" type="text" placeholder="Search...">\\n            </form>\\n          </li>\\n        </ul>\\n        <ul id="navbar" class="nav pull-right">\\n          \', escape=False)\nif not request.vars[\'user\']:\n    response.write(\'\\n          <li>\\n            <a href="index.html">Home</a>\\n          </li>\\n          <li>\\n            <a href="login.html">Login</a>\\n          </li>\\n          <li>\\n            <a href="register.html">Register</a>\\n          </li>\\n          \', escape=False)\nelse:\n    response.write(\'\\n          <li>\\n            <a href=\', escape=False)\n    response.write(URL(\'index\', vars=dict(user=request.vars[\'user\'])))\n    response.write(\'>Home</a>\\n          </li>\\n          <li>\\n            <a href=\', escape=False)\n    response.write(URL(\'profile\', vars=dict(user=request.vars[\'user\'])))\n    response.write(\'>\', escape=False)\n    response.write(request.vars[\'user\'])\n    response.write(\'</a>\\n          </li>\\n          \', escape=False)\n    pass\nresponse.write(\'\\n        </ul>\\n        <div class="\', escape=False)\nresponse.write(\'nav-collapse\' if is_mobile else \'nav\')\nresponse.write(\'">\\n        </div><!--/.nav-collapse -->\\n      </div>\\n  </div><!--/top navbar -->\\n\\n\', escape=False)\nresponse.write(\'\\n<div class="container-fluid">\\n  <div class="row-fluid">\\n    \', escape=False)\nresponse.write(\'\\n    <div class="span3">\\n      <div class="well sidebar-nav">\\n        <ul class="nav nav-list">\\n          <li class="nav-header">Phones</li>\\n          \', escape=False)\nif not request.vars[\'user\']:\n    response.write(\'\\n          <li class="active">\\n            <a href=\', escape=False)\n    response.write(URL(\'products\', vars=dict(manufacturer=\'TopPhones\')))\n    response.write(\'>Top Phones</a>\\n          </li>\\n          <li>\\n            <a href=\', escape=False)\n    response.write(URL(\'products\', vars=dict(manufacturer=\'Apple\')))\n    response.write(\'>Apple</a>\\n          </li>\\n          <li>\\n            <a href=\', escape=False)\n    response.write(URL(\'products\', vars=dict(manufacturer=\'BlackBerry\')))\n    response.write(\'>Blackberry</a>\\n          </li>\\n          <li>\\n            <a href=\', escape=False)\n    response.write(URL(\'products\', vars=dict(manufacturer=\'HTC\')))\n    response.write(\'>HTC</a>\\n          </li>\\n          <li>\\n            <a href=\', escape=False)\n    response.write(URL(\'products\', vars=dict(manufacturer=\'Motorolla\')))\n    response.write(\'>Motorolla</a>\\n          </li>\\n          <li>\\n            <a href=\', escape=False)\n    response.write(URL(\'products\', vars=dict(manufacturer=\'Nokia\')))\n    response.write(\'>Nokia</a>\\n          </li>\\n          <li>\\n            <a href=\', escape=False)\n    response.write(URL(\'products\', vars=dict(manufacturer=\'Samsung\')))\n    response.write(\'>Samsung</a>\\n          </li>\\n          <li>\\n            <a href=\', escape=False)\n    response.write(URL(\'products\', vars=dict(manufacturer=\'Sony\')))\n    response.write(\'>Sony</a>\\n          </li>\\n          \', escape=False)\nelse:\n    response.write(\'\\n          <li class="active">\\n            <a href=\', escape=False)\n    response.write(URL(\'products\', vars=dict(user=request.vars[\'user\'], manufacturer=\'TopPhones\')))\n    response.write(\'>Top Phones</a>\\n          </li>\\n          <li>\\n            <a href=\', escape=False)\n    response.write(URL(\'products\', vars=dict(user=request.vars[\'user\'], manufacturer=\'Apple\')))\n    response.write(\'>Apple</a>\\n          </li>\\n          <li>\\n            <a href=\', escape=False)\n    response.write(URL(\'products\', vars=dict(user=request.vars[\'user\'], manufacturer=\'Blackberry\')))\n    response.write(\'>Blackberry</a>\\n          </li>\\n          <li>\\n            <a href=\', escape=False)\n    response.write(URL(\'products\', vars=dict(user=request.vars[\'user\'], manufacturer=\'HTC\')))\n    response.write(\'>HTC</a>\\n          </li>\\n          <li>\\n            <a href=\', escape=False)\n    response.write(URL(\'products\', vars=dict(user=request.vars[\'user\'], manufacturer=\'Motorolla\')))\n    response.write(\'>Motorolla</a>\\n          </li>\\n          <li>\\n            <a href=\', escape=False)\n    response.write(URL(\'products\', vars=dict(user=request.vars[\'user\'], manufacturer=\'Nokia\')))\n    response.write(\'>Nokia</a>\\n          </li>\\n          <li>\\n            <a href=\', escape=False)\n    response.write(URL(\'products\', vars=dict(user=request.vars[\'user\'], manufacturer=\'Samsung\')))\n    response.write(\'>Samsung</a>\\n          </li>\\n          <li>\\n            <a href=\', escape=False)\n    response.write(URL(\'products\', vars=dict(user=request.vars[\'user\'], manufacturer=\'Sony\')))\n    response.write(\'>Sony</a>\\n          </li>\\n          \', escape=False)\n    pass\nresponse.write(\'\\n        </ul>\\n      </div>\\n    </div>\\n    \', escape=False)\nresponse.write(\'\\n\\n    <div class="span9">\\n        \', escape=False)\nresponse.write(\'\\n        <div class="page-header">\\n          <div id="tech-slideshow">\\n            <div id="tech-slideshow-1"></div>\\n            <div id="tech-slideshow-2"></div>\\n          </div>\\n        </div>\\n        \', escape=False)\nresponse.write(\'\\n\\n\\n      <div class="row-fluid">\\n          \', escape=False)\nresponse.write(\'\\n          \', escape=False)\nresponse.write(\'\\n\\n\', escape=False)\nresponse.write(\'\\n\', escape=False)\nresponse.write(\'\\n\\n\', escape=False)\nrows = db(db.productList).select()\nresponse.write(\'\\n\', escape=False)\nif len(rows):\n    response.write(\'\\n\\n<div class="navigator" style="padding-left:0.5cm;">\\n\\t<p style="color: blue;">\\n\\t\\t\', escape=False)\n    if not request.vars[\'user\']:\n        response.write(\'\\n\\t\\t<a href="index.html">Home</a>\\n\\t \\t<a>>></a>\\n\\t\\t<a href=\', escape=False)\n        response.write(URL(\'products\', vars=dict(manufacturer=abc)))\n        response.write(\'>\', escape=False)\n        response.write(abc)\n        response.write(\'</a>\\n\\t\\t\', escape=False)\n    else:\n        response.write(\'\\n\\t\\t<a href=\', escape=False)\n        response.write(URL(\'index\', vars=dict(user=request.vars[\'user\'])))\n        response.write(\'>Home</a>\\n\\t \\t<a>>></a>\\n\\t\\t<a href=\', escape=False)\n        response.write(URL(\'products\', vars=dict(manufacturer=abc, user=request.vars[\'user\'])))\n        response.write(\'>\', escape=False)\n        response.write(abc)\n        response.write(\'</a>\\n\\t\\t\', escape=False)\n        pass\n    response.write(\'\\n\\t</p>\\n</div>\\n\\n\\t\\t\\t\', escape=False)\n    for r in rows:\n        response.write(\'\\n\\t\\t\\t\\t\', escape=False)\n        if r.manufacturer==abc:\n            response.write(\'\\n\\t\\t\\t\\t\\t\', escape=False)\n            if r.imageUrl!="image" or r.name!="title" or r.description!="desc":\n                response.write(\'\\n\\t\\t\\t\\t    <div class="row">     \\n\\t\\t\\t\\t    \\t<br/>\\n\\t\\t\\t\\t        <div class="span2">\\n\\t\\t\\t\\t        \\t\', escape=False)\n                if not request.vars[\'user\']:\n                    response.write(\'\\n\\t\\t\\t\\t\\t\\t\\t<a class="imageLinkWrapper" href=\', escape=False)\n                    response.write(URL(\'specifications\', vars=dict(manufacturer=abc, phone=r.name)))\n                    response.write(\'>\\n\\t\\t\\t\\t\\t\\t\\t\', escape=False)\n                else:\n                    response.write(\'\\n\\t\\t\\t\\t\\t\\t\\t<a class="imageLinkWrapper" href=\', escape=False)\n                    response.write(URL(\'specifications\', vars=dict(manufacturer=abc, phone=r.name, user=request.vars[\'user\'])))\n                    response.write(\'>\\n\\t\\t\\t\\t\\t\\t\\t\', escape=False)\n                    pass\n                response.write(\'\\n\\t\\t\\t\\t\\t\\t\\t\\t<figure class=" img">\\n\\t\\t\\t\\t\\t\\t\\t\\t  \\t<img src=\', escape=False)\n                response.write(r.imageUrl)\n                response.write(\'></img>\\n\\t\\t\\t\\t\\t\\t\\t\\t</figure>\\n\\t\\t\\t\\t\\t\\t\\t</a>\\n\\t\\t\\t\\t\\t\\t</div>\\n\\t\\t\\t\\t        <div class="span9">\\n\\t\\t\\t\\t        \\t\', escape=False)\n                bcd=r.name\n                response.write(\'\\n\\t\\t\\t\\t        \\t\', escape=False)\n                if not request.vars[\'user\']:\n                    response.write(\'\\t\\t\\t\\t        \\t\\n\\t\\t\\t\\t        \\t<a class="imageLinkWrapper" href=\', escape=False)\n                    response.write(URL(\'specifications\', vars=dict(manufacturer=abc, phone=r.name)))\n                    response.write(\'>\\n\\t\\t\\t\\t        \\t\', escape=False)\n                else:\n                    response.write(\'\\n\\t\\t\\t\\t        \\t<a class="imageLinkWrapper" href=\', escape=False)\n                    response.write(URL(\'specifications\', vars=dict(manufacturer=abc, phone=r.name, user=request.vars[\'user\'])))\n                    response.write(\'>\\n\\t\\t\\t\\t        \\t\', escape=False)\n                    pass\n                response.write(\'\\n\\t\\t\\t\\t        \\t\\t<h3>\', escape=False)\n                response.write(bcd.strip(","))\n                response.write(\'</h3>\\n\\t\\t\\t\\t        \\t</a>\\n\\t\\t\\t\\t        \\t<p>\', escape=False)\n                response.write(r.description)\n                response.write(\'</p>\\n\\t\\t\\t\\t  \\t\\t</div>\\n\\t\\t\\t\\t  \\t</div>\\n\\t\\t\\t\\t\\t\', escape=False)\n                pass\n            response.write(\'\\n\\t\\t\\t\\t\', escape=False)\n            pass\n        response.write(\'\\n\\t\\t\\t\', escape=False)\n        pass\n    response.write(\'\\n\\t\', escape=False)\n    pass\nresponse.write(\'\\n\\t\', escape=False)\nresponse.write(\'\\n          \', escape=False)\nresponse.write(\'\\n      </div>\\n    </div>\\n\\n  </div>\\n\\n  <footer class="footer span12" id="footer">\\n    <div class="footer-content">\\n      <div class="copyright pull-left">\', escape=False)\nresponse.write(T(\'Copyright\'))\nresponse.write(\' &#169; \', escape=False)\nresponse.write(request.now.year)\nresponse.write(\'</div>\\n      <div id="poweredBy" class="pull-right">\\n        \', escape=False)\nresponse.write(T(\'Powered by\'))\nresponse.write(\'\\n        <a href="http://www.web2py.com/">web2py</a>\\n      </div>\\n    </div>\\n  </footer>\\n</div>\\n\', escape=False)\nresponse.write(\'\\n\\n  <!-- The javascript =============================================\\n       (Placed at the end of the document so the pages load faster) -->\\n  <script src="\', escape=False)\nresponse.write(URL(\'static\',\'js/bootstrap.min.js\'))\nresponse.write(\'"></script>\\n  <script src="\', escape=False)\nresponse.write(URL(\'static\',\'js/web2py_bootstrap.js\'))\nresponse.write(\'"></script>\\n  <!--[if lt IE 7 ]>\\n      <script src="\', escape=False)\nresponse.write(URL(\'static\',\'js/dd_belatedpng.js\'))\nresponse.write(\'"></script>\\n      <script> DD_belatedPNG.fix(\\\'img, .png_bg\\\'); //fix any <img> or .png_bg background-images </script>\\n      <![endif]-->\\n  \\n  \', escape=False)\nif response.google_analytics_id:\n    response.write(\'\\n  <script src="\', escape=False)\n    response.write(URL(\'static\',\'js/analytics.min.js\'))\n    response.write(\'"></script>\\n  <script type="text/javascript">\\n  analytics.initialize({\\n    \\\'Google Analytics\\\':{trackingId:\\\'\', escape=False)\n    response.write(response.google_analytics_id)\n    response.write("\'} \\n  });</script>\\n  ", escape=False)\n    pass\nresponse.write(\'\\n  <script src="\', escape=False)\nresponse.write(URL(\'static\',\'js/share.js\',vars=dict(static=URL(\'static\',\'images\'))))\nresponse.write(\'"></script>\\n  <script src="\', escape=False)\nresponse.write(URL(\'static\',\'js/jsapi.js\'))\nresponse.write(\'"></script>\\n\\n  <script type="text/javascript">\\n      google.load("visualization", "1", {packages:["corechart"]});\\n      google.setOnLoadCallback(drawChart);\\n      function drawChart() {\\n        var data = google.visualization.arrayToDataTable([\\n          [\\\'Task\\\', \\\'Hours per Day\\\'],\\n          [\\\'Work\\\',     11],\\n          [\\\'Eat\\\',      2],\\n          [\\\'Commute\\\',  2],\\n          [\\\'Watch TV\\\', 2],\\n          [\\\'Sleep\\\',    7]\\n        ]);\\n\\n        var options = {\\n          title: \\\'My Daily Activities\\\',\\n          is3D: true,\\n        };\\n\\n        var chart = new google.visualization.PieChart(document.getElementById(\\\'piechart_3d\\\'));\\n        chart.draw(data, options);\\n      }\\n  </script>\\n</body>\\n</html>\\n\\n\', escape=False)'
p7
sS'snapshot'
p8
(dp9
sS'traceback'
p10
S'Traceback (most recent call last):\n  File "/home/darshan-ubuntu/Project/web2py/gluon/restricted.py", line 220, in restricted\n    exec ccode in environment\n  File "/home/darshan-ubuntu/Project/web2py/applications/PhoneReviews/views/default/products.html", line 130, in <module>\n  File "/home/darshan-ubuntu/Project/web2py/gluon/dal.py", line 10568, in select\n    return adapter.select(self.query,fields,attributes)\n  File "/home/darshan-ubuntu/Project/web2py/gluon/dal.py", line 1882, in select\n    return self._select_aux(sql,fields,attributes)\n  File "/home/darshan-ubuntu/Project/web2py/gluon/dal.py", line 1847, in _select_aux\n    self.execute(sql)\n  File "/home/darshan-ubuntu/Project/web2py/gluon/dal.py", line 1969, in execute\n    return self.log_execute(*a, **b)\n  File "/home/darshan-ubuntu/Project/web2py/gluon/dal.py", line 1963, in log_execute\n    ret = self.cursor.execute(command, *a[1:], **b)\n  File "/usr/lib/python2.7/dist-packages/MySQLdb/cursors.py", line 174, in execute\n    self.errorhandler(self, exc, value)\n  File "/usr/lib/python2.7/dist-packages/MySQLdb/connections.py", line 36, in defaulterrorhandler\n    raise errorclass, errorvalue\nProgrammingError: (1146, "Table \'phone_reviews.productList\' doesn\'t exist")\n'
p11
s.