(dp1
S'output'
p2
S"<type 'exceptions.TypeError'> id() takes exactly one argument (0 given)"
p3
sS'layer'
p4
S'/home/darshan-ubuntu/Project/web2py/applications/PhoneReviews/views/default/specifications.html'
p5
sS'code'
p6
S'a=request.vars[\'manufacturer\']\nresponse.write(\'\\n\', escape=False)\nb=request.vars[\'phone\']\nresponse.write(\'\\n\', escape=False)\nresponse.write(\'<!DOCTYPE html>\\n<html class="no-js" lang="\', escape=False)\nresponse.write(T.accepted_language or \'en\')\nresponse.write(\'"> \\n<head>\\n<title>\', escape=False)\nresponse.write(response.title or request.application)\nresponse.write(\'</title>\\n  <meta charset="utf-8" />\\n\\n  <meta name="application-name" content="\', escape=False)\nresponse.write(request.application)\nresponse.write(\'" />\\n\\n  <link rel="shortcut icon" href="\', escape=False)\nresponse.write(URL(\'static\',\'images/favicon.ico\'))\nresponse.write(\'" type="image/x-icon">\\n  <link rel="apple-touch-icon" href="\', escape=False)\nresponse.write(URL(\'static\',\'images/favicon.png\'))\nresponse.write(\'">\\n  <link rel="stylesheet" href="\', escape=False)\nresponse.write(URL(\'static\',\'css/footer.css\'))\nresponse.write(\'" type=\\\'text/css\\\'>\\n\\n  <!-- All JavaScript at the bottom, except for Modernizr which enables\\n       HTML5 elements & feature detects -->\\n  <script src="\', escape=False)\nresponse.write(URL(\'static\',\'js/modernizr.custom.js\'))\nresponse.write(\'"></script>\\n\\n  <!-- include stylesheets -->\\n  \', escape=False)\nresponse.files.insert(0,URL(\'static\',\'css/web2py.css\'))\nresponse.files.insert(0,URL(\'static\',\'css/bootstrap.css\'))\nresponse.files.insert(0,URL(\'static\',\'css/offcanvas.css\'))\nresponse.files.insert(0,URL(\'static\',\'css/untitled.css\'))\nresponse.files.insert(1,URL(\'static\',\'css/bootstrap.min.css\'))\nresponse.files.insert(2,URL(\'static\',\'css/bootstrap-responsive.min.css\'))\nresponse.files.insert(3,URL(\'static\',\'css/web2py_bootstrap.css\'))\nresponse.files.insert(3,URL(\'static\',\'css/specifications.css\'))\nresponse.write(\'\\n\\n  \', escape=False)\nresponse.write(\'<script type="text/javascript"><!--\\n    // These variables are used by the web2py_ajax_init function in web2py_ajax.js (which is loaded below).\\n    var w2p_ajax_confirm_message = "\', escape=False)\nresponse.write(T(\'Are you sure you want to delete this object?\'))\nresponse.write(\'";\\n    var w2p_ajax_disable_with_message = "\', escape=False)\nresponse.write(T(\'Working...\'))\nresponse.write(\'";\\n    var w2p_ajax_date_format = "\', escape=False)\nresponse.write(T(\'%Y-%m-%d\'))\nresponse.write(\'";\\n    var w2p_ajax_datetime_format = "\', escape=False)\nresponse.write(T(\'%Y-%m-%d %H:%M:%S\'))\nresponse.write(\'";\\n    var ajax_error_500 = \\\'\', escape=False)\nresponse.write(T.M(\'An error occured, please [[reload %s]] the page\') % URL(args=request.args, vars=request.get_vars))\nresponse.write("\'\\n    //--></script>\\n", escape=False)\nresponse.files.insert(0,URL(\'static\',\'js/jquery.js\'))\nresponse.files.insert(1,URL(\'static\',\'css/calendar.css\'))\nresponse.files.insert(2,URL(\'static\',\'js/calendar.js\'))\nresponse.files.insert(3,URL(\'static\',\'js/web2py.js\'))\nresponse.include_meta()\nresponse.include_files()\nresponse.write(\'\\n\', escape=False)\nresponse.write(\'\\n\\n  <noscript><link href="\', escape=False)\nresponse.write(URL(\'static\', \'css/web2py_bootstrap_nojs.css\'))\nresponse.write(\'" rel="stylesheet" type="text/css" /></noscript>\\n\\n  <style type="text/css">\\n    a.loser{\\n      vertical-align:middle;\\n      color:red;\\n    }\\n  </style>\\n  \', escape=False)\nresponse.write(\'\\n</head>\\n\\n<body>\\n  <!-- Navbar ================================================== -->\\n  <div class="navbar navbar-inverse">\\n      <div class="container">\\n        \', escape=False)\nis_mobile=request.user_agent().is_mobile\nresponse.write(\'\\n        <!-- the next tag is necessary for bootstrap menus, do not remove -->\\n        <button type="button" class="btn btn-navbar" data-toggle="collapse" data-target=".nav-collapse" style="\', escape=False)\nresponse.write(\'display:none;\' if not is_mobile else \'\')\nresponse.write(\'">\\n          <span class="icon-bar"></span>\\n          <span class="icon-bar"></span>\\n          <span class="icon-bar"></span>\\n        </button>\\n        <ul id="navbar" class="nav pull-left">\\n          <li>\\n            <a href="#" style="font-size:20px;"><strong>PhoneStats</strong></a>\\n          </li>\\n          <li>\\n            <form class="navbar-form">\\n              <input class="form-control" type="text" placeholder="Search...">\\n            </form>\\n          </li>\\n        </ul>\\n        <ul id="navbar" class="nav pull-right">\\n          \', escape=False)\nif not request.vars[\'user\']:\n    response.write(\'\\n          <li>\\n            <a href="index.html">Home</a>\\n          </li>\\n          <li>\\n            <a href="login.html">Login</a>\\n          </li>\\n          <li>\\n            <a href="register.html">Register</a>\\n          </li>\\n          \', escape=False)\nelse:\n    response.write(\'\\n          <li>\\n            <a href=\', escape=False)\n    response.write(URL(\'index\', vars=dict(user=request.vars[\'user\'])))\n    response.write(\'>Home</a>\\n          </li>\\n          <li>\\n            <a href=\', escape=False)\n    response.write(URL(\'profile\', vars=dict(user=request.vars[\'user\'])))\n    response.write(\'>\', escape=False)\n    response.write(request.vars[\'user\'])\n    response.write(\'</a>\\n          </li>\\n          \', escape=False)\n    pass\nresponse.write(\'\\n        </ul>\\n        <div class="\', escape=False)\nresponse.write(\'nav-collapse\' if is_mobile else \'nav\')\nresponse.write(\'">\\n        </div><!--/.nav-collapse -->\\n      </div>\\n  </div><!--/top navbar -->\\n\\n\', escape=False)\nresponse.write(\'\\n\\n<div class="navigator" style="padding-left:0.5cm;">\\n\\t<p style="color: blue;">\\n\\t\\t\', escape=False)\nif not request.vars[\'user\']:\n    response.write(\'\\n\\t\\t<a href="index.html">Home</a>\\n\\t \\t<a>>></a>\\n\\t\\t<a href="\', escape=False)\n    response.write(URL(\'products\', vars=dict(manufacturer=a)))\n    response.write(\'">\', escape=False)\n    response.write(a)\n    response.write(\'</a>\\n\\t \\t<a>>></a>\\n\\t \\t\', escape=False)\nelse:\n    response.write(\'\\t\\n\\t\\t<a href="\', escape=False)\n    response.write(URL(\'index\', vars=dict(user=request.vars[\'user\'])))\n    response.write(\'">Home</a>\\n\\t \\t<a>>></a>\\n\\t\\t<a href="\', escape=False)\n    response.write(URL(\'products\', vars=dict(manufacturer=a, user=request.vars[\'user\'])))\n    response.write(\'">\', escape=False)\n    response.write(a)\n    response.write(\'</a>\\n\\t \\t<a>>></a>\\n\\t \\t\', escape=False)\n    pass\nresponse.write(\'\\n\\t\\t<a href="#">\', escape=False)\nresponse.write(b.strip(\',\'))\nresponse.write(\'</a>\\n\\t</p>\\n</div>\\n\\n<div class="row">\\n\\t<div class="span6">\\n\\t<br/>\\n\\t\\t<img src=\', escape=False)\nresponse.write(URL(\'static\',\'images/lumia.jpg\'))\nresponse.write(\'>\\n\\t</div>\\n\\t<div class="span6">\\n\\t\\t<h2>\', escape=False)\nresponse.write(b.strip(\',\'))\nresponse.write(\'</h2>\\n\\t</div>\\n</div>\\n\\n\\n<div class="span12">\\n\\t<div class="subnav">\\n\\t    <div class="subnavSecondary">\\n\\t        <a href="specifications.html">\\n\\t            <h2 class="door">Specifications</h2>\\n\\t\\t\\t</a>\\n\\t        <a href="\', escape=False)\nresponse.write(URL(\'good_reviews\', vars=dict(manufacturer=a, user=request.vars[\'user\'], phone=b)))\nresponse.write(\'">\\n\\t           \\t<h2 class="door ">Good Reviews</h2>\\n\\t        </a>\\n\\t        <a href="\', escape=False)\nresponse.write(URL(\'bad_reviews\', vars=dict(manufacturer=a, user=request.vars[\'user\'], phone=b)))\nresponse.write(\'">\\n\\t           \\t<h2 class="door ">Bad Reviews</h2>\\n\\t        </a>\\n\\t        <a href="\', escape=False)\nresponse.write(URL(\'features\', vars=dict(manufacturer=a, user=request.vars[\'user\'], phone=b)))\nresponse.write(\'">\\n\\t            <h2 class="door ">Features</h2>\\n\\t        </a>\\n\\t    </div>\\n\\t</div>\\n\\t<div class="tab-content-m">\\n\\t\', escape=False)\nresponse.write(\'\\n\\n\', escape=False)\nphone= request.vars[\'phone\']\nresponse.write(\'\\n\\n\', escape=False)\nrows = db(db.phone_id.name==phone).select(db.phone_id.id)\nresponse.write(\'\\n\', escape=False)\nfor r in rows:\n    response.write(\'\\n\', escape=False)\n    id=r.id\n    response.write(\'\\n\', escape=False)\n    pass\nresponse.write(\'\\n\', escape=False)\nrows = db(db.specifications.phone_id==id).select()\nresponse.write(\'\\n\\n<div class=" ">\\n\\t\', escape=False)\nfor r in rows:\n    response.write(\'\\n\\t<div class="s_specs_box">\\n\\t\\t<h4 class="htitle">Design</h4>\\n\\t\\t<br/>\\n\\t\\t<ul>\\n\\t\\t\\t<li class="s_lv_1">\\n\\t\\t\\t\\t<strong class=" s_lv_1 "><center>Device type:</center></strong>\\n\\t\\t\\t\\t<ul class=" s_lv_1 ">\\n\\t\\t\\t\\t\\t<li>\', escape=False)\n    response.write(r.DeviceType)\n    response.write(\'</li>\\n\\t\\t\\t\\t</ul>\\n\\t\\t\\t</li>\\n\\t\\t\\t<li class="s_lv_1">\\n\\t\\t\\t\\t<strong class=" s_lv_1 "><center>OS:</center></strong>\\n\\t\\t\\t\\t<ul class=" s_lv_1 ">\\n\\t\\t\\t\\t\\t<li>\', escape=False)\n    response.write(r.OS)\n    response.write(\'</li>\\n\\t\\t\\t\\t</ul>\\n\\t\\t\\t</li>\\n\\t\\t\\t<li class="s_lv_1">\\n\\t\\t\\t\\t<strong class=" s_lv_1 "><center>Dimensions:</center></strong>\\n\\t\\t\\t\\t<ul class=" s_lv_1 ">\\n\\t\\t\\t\\t\\t<li>\', escape=False)\n    response.write(r.Dimensions)\n    response.write(\'</li>\\n\\t\\t\\t\\t</ul>\\n\\t\\t\\t</li><li class="s_lv_1">\\n\\t\\t\\t\\t<strong class=" s_lv_1 "><center>Weight:</center></strong>\\n\\t\\t\\t\\t<ul class=" s_lv_1 ">\\n\\t\\t\\t\\t\\t<li>\', escape=False)\n    response.write(r.Weight)\n    response.write(\'</li>\\n\\t\\t\\t\\t</ul>\\n\\t\\t\\t</li>\\n\\t\\t\\t<li class="s_lv_1">\\n\\t\\t\\t\\t<strong class=" s_lv_1 "><center>Body Material:</center></strong>\\n\\t\\t\\t\\t<ul class=" s_lv_1 ">\\n\\t\\t\\t\\t\\t<li>\', escape=False)\n    response.write(r.BodyMaterial)\n    response.write(\'</li>\\n\\t\\t\\t\\t</ul>\\n\\t\\t\\t</li>\\n\\t\\t</ul>\\n\\t\\t<br/>\\n\\n\\t\\t<h4 class="htitle">Physical Size:</h4>\\n\\t\\t<br/>\\n\\t\\t<ul>\\n\\t\\t\\t<li class="s_lv_1">\\n\\t\\t\\t\\t<strong class=" s_lv_1 "><center>Physical Size:</center></strong>\\n\\t\\t\\t\\t<ul class=" s_lv_1 ">\\n\\t\\t\\t\\t\\t<li>\', escape=False)\n    response.write(r.PhysicalSize)\n    response.write(\'</li>\\n\\t\\t\\t\\t</ul>\\n\\t\\t\\t</li><li class="s_lv_1">\\n\\t\\t\\t\\t<strong class=" s_lv_1 "><center>Resolution:</center></strong>\\n\\t\\t\\t\\t<ul class=" s_lv_1 ">\\n\\t\\t\\t\\t\\t<li>\', escape=False)\n    response.write(r.Resolution)\n    response.write(\'</li>\\n\\t\\t\\t\\t</ul>\\n\\t\\t\\t</li>\\n\\t\\t\\t<li class="s_lv_1">\\n\\t\\t\\t\\t<strong class=" s_lv_1 "><center>Colors:</center></strong>\\n\\t\\t\\t\\t<ul class=" s_lv_1 ">\\n\\t\\t\\t\\t\\t<li>\', escape=False)\n    response.write(r.Colors)\n    response.write(\'</li>\\n\\t\\t\\t\\t</ul>\\n\\t\\t\\t</li>\\n\\t\\t\\t<li class="s_lv_1">\\n\\t\\t\\t\\t<strong class=" s_lv_1 "><center>Features:</center></strong>\\n\\t\\t\\t\\t<ul class=" s_lv_1 ">\\n\\t\\t\\t\\t\\t<li>\', escape=False)\n    response.write(r.Features)\n    response.write(\'</li>\\n\\t\\t\\t\\t</ul>\\n\\t\\t\\t</li>\\n\\t\\t</ul>\\n\\t\\t<br/>\\n\\n\\t\\t<h4>Battery:</h4>\\n\\t\\t<br/>\\n\\t\\t<ul>\\n\\t\\t\\t</li><li class="s_lv_1">\\n\\t\\t\\t\\t<strong class=" s_lv_1 "><center>Capacity:</center></strong>\\n\\t\\t\\t\\t<ul class=" s_lv_1 ">\\n\\t\\t\\t\\t\\t<li>\', escape=False)\n    response.write(r.Capacity)\n    response.write(\'</li>\\n\\t\\t\\t\\t</ul>\\n\\t\\t\\t</li>\\n\\t\\t\\t<li class="s_lv_1">\\n\\t\\t\\t\\t<strong class=" s_lv_1 "><center>StandbyTime:</center></strong>\\n\\t\\t\\t\\t<ul class=" s_lv_1 ">\\n\\t\\t\\t\\t\\t<li>\', escape=False)\n    response.write(r.StandbyTime)\n    response.write(\'</li>\\n\\t\\t\\t\\t</ul>\\n\\t\\t\\t</li>\\n\\t\\t\\t<li class="s_lv_1">\\n\\t\\t\\t\\t<strong class=" s_lv_1 "><center>Talk time:</center></strong>\\n\\t\\t\\t\\t<ul class=" s_lv_1 ">\\n\\t\\t\\t\\t\\t<li>\', escape=False)\n    response.write(r.Talktime)\n    response.write(\'</li>\\n\\t\\t\\t\\t</ul>\\n\\t\\t\\t</li>\\n\\t\\t\\t<li class="s_lv_1">\\n\\t\\t\\t\\t<strong class=" s_lv_1 "><center>Wireless Charging:</center></strong>\\n\\t\\t\\t\\t<ul class=" s_lv_1 ">\\n\\t\\t\\t\\t\\t<li>\', escape=False)\n    response.write(r.WirelessCharging)\n    response.write(\'</li>\\n\\t\\t\\t\\t</ul>\\n\\t\\t\\t</li>\\n\\t\\t</ul>\\n\\t\\t<br/>\\n\\n\\t\\t<h4>Technology:</h4>\\n\\t\\t<br/>\\n\\t\\t<ul>\\n\\t\\t\\t<li class="s_lv_1">\\n\\t\\t\\t\\t<strong class=" s_lv_1 "><center>UMTS:</center></strong>\\n\\t\\t\\t\\t<ul class=" s_lv_1 ">\\n\\t\\t\\t\\t\\t<li>\', escape=False)\n    response.write(r.UMTS)\n    response.write(\'</li>\\n\\t\\t\\t\\t</ul>\\n\\t\\t\\t<li class="s_lv_1">\\n\\t\\t\\t\\t<strong class=" s_lv_1 "><center>GSM:</center></strong>\\n\\t\\t\\t\\t<ul class=" s_lv_1 ">\\n\\t\\t\\t\\t\\t<li>\', escape=False)\n    response.write(r.GSM)\n    response.write(\'</li>\\n\\t\\t\\t\\t</ul>\\n\\t\\t\\t</li>\\n\\t\\t\\t<li class="s_lv_1">\\n\\t\\t\\t\\t<strong class=" s_lv_1 "><center>Data:</center></strong>\\n\\t\\t\\t\\t<ul class=" s_lv_1 ">\\n\\t\\t\\t\\t\\t<li>\', escape=False)\n    response.write(r.Datas)\n    response.write(\'</li>\\n\\t\\t\\t\\t</ul>\\n\\t\\t\\t</li>\\n\\t\\t\\t<li class="s_lv_1">\\n\\t\\t\\t\\t<strong class=" s_lv_1 "><center>Navigations:</center></strong>\\n\\t\\t\\t\\t<ul class=" s_lv_1 ">\\n\\t\\t\\t\\t\\t<li>\', escape=False)\n    response.write(r.Navigations)\n    response.write(\'</li>\\n\\t\\t\\t\\t</ul>\\n\\t\\t\\t</li>\\n\\t\\t\\t<li class="s_lv_1">\\n\\t\\t\\t\\t<strong class=" s_lv_1 "><center>Micro SIM:</center></strong>\\n\\t\\t\\t\\t<ul class=" s_lv_1 ">\\n\\t\\t\\t\\t\\t<li>\', escape=False)\n    response.write(r.MicroSim)\n    response.write(\'</li>\\n\\t\\t\\t\\t</ul>\\n\\t\\t\\t</li>\\n\\t\\t</ul>\\n\\t\\t<br/>\\n\\n\\t\\t<h4>Multimedia:</h4>\\n\\t\\t<br/>\\n\\t\\t<ul>\\n\\t\\t\\t</li><li class="s_lv_1">\\n\\t\\t\\t\\t<strong class=" s_lv_1 "><center>Accessories:</center></strong>\\n\\t\\t\\t\\t<ul class=" s_lv_1 ">\\n\\t\\t\\t\\t\\t<li>\', escape=False)\n    response.write(r.Accessories)\n    response.write(\'</li>\\n\\t\\t\\t\\t</ul>\\n\\t\\t\\t<li class="s_lv_1">\\n\\t\\t\\t\\t<strong class=" s_lv_1 "><center>Notifications:</center></strong>\\n\\t\\t\\t\\t<ul class=" s_lv_1 ">\\n\\t\\t\\t\\t\\t<li>\', escape=False)\n    response.write(r.Notifications)\n    response.write(\'</li>\\n\\t\\t\\t\\t</ul>\\n\\t\\t\\t</li>\\n\\t\\t\\t<li class="s_lv_1">\\n\\t\\t\\t\\t<strong class=" s_lv_1 "><center>Speakers:</center></strong>\\n\\t\\t\\t\\t<ul class=" s_lv_1 ">\\n\\t\\t\\t\\t\\t<li>\', escape=False)\n    response.write(r.Speakers)\n    response.write(\'</li>\\n\\t\\t\\t\\t</ul>\\n\\t\\t\\t</li>\\n\\t\\t\\t<li class="s_lv_1">\\n\\t\\t\\t\\t<strong class=" s_lv_1 "><center>Youtube Player:</center></strong>\\n\\t\\t\\t\\t<ul class=" s_lv_1 ">\\n\\t\\t\\t\\t\\t<li>\', escape=False)\n    response.write(r.YoutubePlayer)\n    response.write(\'</li>\\n\\t\\t\\t\\t</ul>\\n\\t\\t\\t</li>\\n\\t\\t\\t<li class="s_lv_1">\\n\\t\\t\\t\\t<strong class=" s_lv_1 "><center>Other:</center></strong>\\n\\t\\t\\t\\t<ul class=" s_lv_1 ">\\n\\t\\t\\t\\t\\t<li>\', escape=False)\n    response.write(r.Other)\n    response.write(\'</li>\\n\\t\\t\\t\\t</ul>\\n\\t\\t\\t</li>\\n\\t\\t</ul>\\n\\t</div>\\n\\t\', escape=False)\n    pass\nresponse.write(\'\\n<div>\\n\\n\', escape=False)\nresponse.write(\'\\n\\t</div>\\n</div>\\n\', escape=False)\nresponse.write(\'\\n\\n  <!-- The javascript =============================================\\n       (Placed at the end of the document so the pages load faster) -->\\n  <script src="\', escape=False)\nresponse.write(URL(\'static\',\'js/bootstrap.min.js\'))\nresponse.write(\'"></script>\\n  <script src="\', escape=False)\nresponse.write(URL(\'static\',\'js/web2py_bootstrap.js\'))\nresponse.write(\'"></script>\\n  \\n  \', escape=False)\nif response.google_analytics_id:\n    response.write(\'\\n  <script src="\', escape=False)\n    response.write(URL(\'static\',\'js/analytics.min.js\'))\n    response.write(\'"></script>\\n  <script type="text/javascript">\\n  analytics.initialize({\\n    \\\'Google Analytics\\\':{trackingId:\\\'\', escape=False)\n    response.write(response.google_analytics_id)\n    response.write("\'} \\n  });</script>\\n  ", escape=False)\n    pass\nresponse.write(\'\\n  <script src="\', escape=False)\nresponse.write(URL(\'static\',\'js/share.js\',vars=dict(static=URL(\'static\',\'images\'))))\nresponse.write(\'"></script>\\n  <script src="\', escape=False)\nresponse.write(URL(\'static\',\'js/jsapi.js\'))\nresponse.write(\'"></script>\\n\\n  <script type="text/javascript">\\n      google.load("visualization", "1", {packages:["corechart"]});\\n      google.setOnLoadCallback(drawChart);\\n      function drawChart() {\\n        \', escape=False)\nrows = db(db.phone_id.id==1).select()\nresponse.write(\'\\n        \', escape=False)\nif len(rows):\n    response.write(\'\\n          \', escape=False)\n    for r in rows:\n        response.write("\\n          var data = google.visualization.arrayToDataTable([\\n            [\'Type\', \'No. of Reviews\'],\\n            [\'Good\',     ", escape=False)\n        response.write(r.good)\n        response.write("],\\n            [\'Bad\',      ", escape=False)\n        response.write(r.bad)\n        response.write("],\\n          ]);\\n\\n          var options = {\\n            title: \'Reviews\',\\n            is3D: true,\\n          };\\n\\n          var chart = new google.visualization.PieChart(document.getElementById(\'piechart_3d\'));\\n          chart.draw(data, options);\\n          ", escape=False)\n        pass\n    response.write(\'\\n          \', escape=False)\n    pass\nresponse.write(\'\\n      }\\n  </script>\\n</body>\\n</html>\\n\\n\', escape=False)'
p7
sS'snapshot'
p8
(dp9
sS'traceback'
p10
S'Traceback (most recent call last):\n  File "/home/darshan-ubuntu/Project/web2py/gluon/restricted.py", line 220, in restricted\n    exec ccode in environment\n  File "/home/darshan-ubuntu/Project/web2py/applications/PhoneReviews/views/default/specifications.html", line 109, in <module>\n    <br/>\n  File "/home/darshan-ubuntu/Project/web2py/gluon/dal.py", line 10568, in select\n    return adapter.select(self.query,fields,attributes)\n  File "/home/darshan-ubuntu/Project/web2py/gluon/dal.py", line 1869, in select\n    sql = self._select(query, fields, attributes)\n  File "/home/darshan-ubuntu/Project/web2py/gluon/dal.py", line 1774, in _select\n    sql_w = \' WHERE \' + self.expand(query) if query else \'\'\n  File "/home/darshan-ubuntu/Project/web2py/gluon/dal.py", line 1541, in expand\n    out = op(first, second, **optional_args)\n  File "/home/darshan-ubuntu/Project/web2py/gluon/dal.py", line 1438, in EQ\n    self.expand(second, first.type))\n  File "/home/darshan-ubuntu/Project/web2py/gluon/dal.py", line 1552, in expand\n    return str(self.represent(expression,field_type))\n  File "/home/darshan-ubuntu/Project/web2py/gluon/dal.py", line 1974, in represent\n    obj = obj()\nTypeError: id() takes exactly one argument (0 given)\n'
p11
s.