(dp1
S'output'
p2
S"<type 'exceptions.NameError'> name 'date' is not defined"
p3
sS'layer'
p4
S'/home/darshan-ubuntu/Project/web2py/applications/PhoneReviews/views/default/features.html'
p5
sS'code'
p6
S'response.write(\'<html>\\n\\t\', escape=False)\nimport datetime,time\nresponse.write(\'\\n\\t\', escape=False)\nrows = db(db.reviews.types==1).select()\nresponse.write(\'\\n\\t<ol style="padding-left:0.4cm; padding-top:0.5cm">\\n\\t  <head>\\n    <script type=\\\'text/javascript\\\' src=\\\'http://www.google.com/jsapi\\\'></script>\\n    <script type=\\\'text/javascript\\\'>\\n      google.load(\\\'visualization\\\', \\\'1.1\\\', {\\\'packages\\\':[\\\'annotationchart\\\']});\\n      google.setOnLoadCallback(drawChart);\\n\\n      function drawChart() {\\n        var data = new google.visualization.DataTable();\\n        data.addColumn(\\\'date\\\', \\\'Date\\\');\\n        data.addColumn(\\\'number\\\', \\\'Kepler-22b mission\\\');\\n        data.addRows([\\n\\t\\t\', escape=False)\nfor r in rows:\n    response.write(\'\\n\\t\\t{date=datetime.datetime.strptime(r.dates.strip(),"%B %d, %Y")}}         \\n\\t\\t[new Date(\', escape=False)\n    response.write(int(\'{0:%Y}\'.format(date,"year")))\n    response.write(\', 2, 17), 35022],\\n        \\t]);\\n        \', escape=False)\n    pass\nresponse.write("\\n        var chart = new google.visualization.AnnotationChart(document.getElementById(\'chart_div\'));\\n\\n        var options = {\\n          displayAnnotations: true,\\n        };\\n\\n        chart.draw(data, options);\\n      }\\n    </script>\\n  </head>\\n\\n  <body>\\n    <div id=\'chart_div\' style=\'width: 900px; height: 500px;\'></div>\\n  </body>\\n</html>", escape=False)'
p7
sS'snapshot'
p8
(dp9
S'exception'
p10
(dp11
S'__hash__'
p12
S"<method-wrapper '__hash__' of exceptions.NameError object>"
p13
sS'__setattr__'
p14
S"<method-wrapper '__setattr__' of exceptions.NameError object>"
p15
sS'__reduce_ex__'
p16
S'<built-in method __reduce_ex__ of exceptions.NameError object>'
p17
sS'__getslice__'
p18
S"<method-wrapper '__getslice__' of exceptions.NameError object>"
p19
sS'__getitem__'
p20
S"<method-wrapper '__getitem__' of exceptions.NameError object>"
p21
sS'__setstate__'
p22
S'<built-in method __setstate__ of exceptions.NameError object>'
p23
sS'__reduce__'
p24
S'<built-in method __reduce__ of exceptions.NameError object>'
p25
sS'__str__'
p26
S"<method-wrapper '__str__' of exceptions.NameError object>"
p27
sS'__format__'
p28
S'<built-in method __format__ of exceptions.NameError object>'
p29
sS'__getattribute__'
p30
S"<method-wrapper '__getattribute__' of exceptions.NameError object>"
p31
sS'__class__'
p32
S"<type 'exceptions.NameError'>"
p33
sS'__unicode__'
p34
S'<built-in method __unicode__ of exceptions.NameError object>'
p35
sS'__delattr__'
p36
S"<method-wrapper '__delattr__' of exceptions.NameError object>"
p37
sS'__subclasshook__'
p38
S'<built-in method __subclasshook__ of type object>'
p39
sS'__repr__'
p40
S"<method-wrapper '__repr__' of exceptions.NameError object>"
p41
sS'args'
p42
S'("name \'date\' is not defined",)'
p43
sS'__dict__'
p44
S'{}'
p45
sS'__sizeof__'
p46
S'<built-in method __sizeof__ of exceptions.NameError object>'
p47
sS'__doc__'
p48
S"'Name not found globally.'"
p49
sS'__init__'
p50
S"<method-wrapper '__init__' of exceptions.NameError object>"
p51
sS'__new__'
p52
S'<built-in method __new__ of type object>'
p53
ssS'evalue'
p54
S"name 'date' is not defined"
p55
sS'request'
p56
cgluon.html
XML_unpickle
p57
(S's\x9e_\x00\x00<div><table><tr><td style="font-weight:bold;vertical-align:top;">ajax</td><td style="vertical-align:top;">:</td><td><div>False</div></td></tr><tr><td style="font-weight:bold;vertical-align:top;">application</td><td style="vertical-align:top;">:</td><td><div>PhoneReviews</div></td></tr><tr><td style="font-weight:bold;vertical-align:top;">args</td><td style="vertical-align:top;">:</td><td><div><table></table></div></td></tr><tr><td style="font-weight:bold;vertical-align:top;">cid</td><td style="vertical-align:top;">:</td><td><div>None</div></td></tr><tr><td style="font-weight:bold;vertical-align:top;">client</td><td style="vertical-align:top;">:</td><td><div>127.0.0.1</div></td></tr><tr><td style="font-weight:bold;vertical-align:top;">controller</td><td style="vertical-align:top;">:</td><td><div>default</div></td></tr><tr><td style="font-weight:bold;vertical-align:top;">cookies</td><td style="vertical-align:top;">:</td><td><div><table><tr><td style="font-weight:bold;vertical-align:top;">registered</td><td style="vertical-align:top;">:</td><td><div>yes<table><tr><td style="font-weight:bold;vertical-align:top;">comment</td><td style="vertical-align:top;">:</td><td><div></div></td></tr><tr><td style="font-weight:bold;vertical-align:top;">domain</td><td style="vertical-align:top;">:</td><td><div></div></td></tr><tr><td style="font-weight:bold;vertical-align:top;">expires</td><td style="vertical-align:top;">:</td><td><div></div></td></tr><tr><td style="font-weight:bold;vertical-align:top;">httponly</td><td style="vertical-align:top;">:</td><td><div></div></td></tr><tr><td style="font-weight:bold;vertical-align:top;">max-age</td><td style="vertical-align:top;">:</td><td><div></div></td></tr><tr><td style="font-weight:bold;vertical-align:top;">path</td><td style="vertical-align:top;">:</td><td><div></div></td></tr><tr><td style="font-weight:bold;vertical-align:top;">secure</td><td style="vertical-align:top;">:</td><td><div></div></td></tr><tr><td style="font-weight:bold;vertical-align:top;">version</td><td style="vertical-align:top;">:</td><td><div></div></td></tr></table></div></td></tr><tr><td style="font-weight:bold;vertical-align:top;">session_id_admin</td><td style="vertical-align:top;">:</td><td><div>127.0.0.1-d0b72aa3-2e9c-42d4-b7ba-1b34ca07b58d<table><tr><td style="font-weight:bold;vertical-align:top;">comment</td><td style="vertical-align:top;">:</td><td><div></div></td></tr><tr><td style="font-weight:bold;vertical-align:top;">domain</td><td style="vertical-align:top;">:</td><td><div></div></td></tr><tr><td style="font-weight:bold;vertical-align:top;">expires</td><td style="vertical-align:top;">:</td><td><div></div></td></tr><tr><td style="font-weight:bold;vertical-align:top;">httponly</td><td style="vertical-align:top;">:</td><td><div></div></td></tr><tr><td style="font-weight:bold;vertical-align:top;">max-age</td><td style="vertical-align:top;">:</td><td><div></div></td></tr><tr><td style="font-weight:bold;vertical-align:top;">path</td><td style="vertical-align:top;">:</td><td><div></div></td></tr><tr><td style="font-weight:bold;vertical-align:top;">secure</td><td style="vertical-align:top;">:</td><td><div></div></td></tr><tr><td style="font-weight:bold;vertical-align:top;">version</td><td style="vertical-align:top;">:</td><td><div></div></td></tr></table></div></td></tr><tr><td style="font-weight:bold;vertical-align:top;">session_id_phonereviews</td><td style="vertical-align:top;">:</td><td><div>127.0.0.1-fa1b37d9-118b-4135-a6e1-d9d8732de482<table><tr><td style="font-weight:bold;vertical-align:top;">comment</td><td style="vertical-align:top;">:</td><td><div></div></td></tr><tr><td style="font-weight:bold;vertical-align:top;">domain</td><td style="vertical-align:top;">:</td><td><div></div></td></tr><tr><td style="font-weight:bold;vertical-align:top;">expires</td><td style="vertical-align:top;">:</td><td><div></div></td></tr><tr><td style="font-weight:bold;vertical-align:top;">httponly</td><td style="vertical-align:top;">:</td><td><div></div></td></tr><tr><td style="font-weight:bold;vertical-align:top;">max-age</td><td style="vertical-align:top;">:</td><td><div></div></td></tr><tr><td style="font-weight:bold;vertical-align:top;">path</td><td style="vertical-align:top;">:</td><td><div></div></td></tr><tr><td style="font-weight:bold;vertical-align:top;">secure</td><td style="vertical-align:top;">:</td><td><div></div></td></tr><tr><td style="font-weight:bold;vertical-align:top;">version</td><td style="vertical-align:top;">:</td><td><div></div></td></tr></table></div></td></tr><tr><td style="font-weight:bold;vertical-align:top;">session_id_welcome</td><td style="vertical-align:top;">:</td><td><div>127.0.0.1-98121f02-af99-4b9f-b7de-204adb560a76<table><tr><td style="font-weight:bold;vertical-align:top;">comment</td><td style="vertical-align:top;">:</td><td><div></div></td></tr><tr><td style="font-weight:bold;vertical-align:top;">domain</td><td style="vertical-align:top;">:</td><td><div></div></td></tr><tr><td style="font-weight:bold;vertical-align:top;">expires</td><td style="vertical-align:top;">:</td><td><div></div></td></tr><tr><td style="font-weight:bold;vertical-align:top;">httponly</td><td style="vertical-align:top;">:</td><td><div></div></td></tr><tr><td style="font-weight:bold;vertical-align:top;">max-age</td><td style="vertical-align:top;">:</td><td><div></div></td></tr><tr><td style="font-weight:bold;vertical-align:top;">path</td><td style="vertical-align:top;">:</td><td><div></div></td></tr><tr><td style="font-weight:bold;vertical-align:top;">secure</td><td style="vertical-align:top;">:</td><td><div></div></td></tr><tr><td style="font-weight:bold;vertical-align:top;">version</td><td style="vertical-align:top;">:</td><td><div></div></td></tr></table></div></td></tr></table></div></td></tr><tr><td style="font-weight:bold;vertical-align:top;">env</td><td style="vertical-align:top;">:</td><td><div><table><tr><td style="font-weight:bold;vertical-align:top;">HTTP_ACCEPT</td><td style="vertical-align:top;">:</td><td><div>text/html,application/xhtml+xml,application/xml;q=0.9,*/*;q=0.8</div></td></tr><tr><td style="font-weight:bold;vertical-align:top;">HTTP_ACCEPT_ENCODING</td><td style="vertical-align:top;">:</td><td><div>gzip, deflate</div></td></tr><tr><td style="font-weight:bold;vertical-align:top;">HTTP_ACCEPT_LANGUAGE</td><td style="vertical-align:top;">:</td><td><div>en-US,en;q=0.5</div></td></tr><tr><td style="font-weight:bold;vertical-align:top;">HTTP_CACHE_CONTROL</td><td style="vertical-align:top;">:</td><td><div>max-age=0</div></td></tr><tr><td style="font-weight:bold;vertical-align:top;">HTTP_CONNECTION</td><td style="vertical-align:top;">:</td><td><div>keep-alive</div></td></tr><tr><td style="font-weight:bold;vertical-align:top;">HTTP_COOKIE</td><td style="vertical-align:top;">:</td><td><div>registered=yes; session_id_welcome=127.0.0.1-98121f02-af99-4b9f-b7de-204adb560a76; session_id_phonereviews=127.0.0.1-fa1b37d9-118b-4135-a6e1-d9d8732de482; session_id_admin=127.0.0.1-d0b72aa3-2e9c-42d4-b7ba-1b34ca07b58d</div></td></tr><tr><td style="font-weight:bold;vertical-align:top;">HTTP_HOST</td><td style="vertical-align:top;">:</td><td><div>127.0.0.1:8000</div></td></tr><tr><td style="font-weight:bold;vertical-align:top;">HTTP_USER_AGENT</td><td style="vertical-align:top;">:</td><td><div>Mozilla/5.0 (X11; Ubuntu; Linux i686; rv:27.0) Gecko/20100101 Firefox/27.0</div></td></tr><tr><td style="font-weight:bold;vertical-align:top;">PATH_INFO</td><td style="vertical-align:top;">:</td><td><div>/PhoneReviews/default/features</div></td></tr><tr><td style="font-weight:bold;vertical-align:top;">QUERY_STRING</td><td style="vertical-align:top;">:</td><td><div>manufacturer=Nexus&amp;phone=Google+Nexus+5&amp;user=None</div></td></tr><tr><td style="font-weight:bold;vertical-align:top;">REMOTE_ADDR</td><td style="vertical-align:top;">:</td><td><div>127.0.0.1</div></td></tr><tr><td style="font-weight:bold;vertical-align:top;">REMOTE_PORT</td><td style="vertical-align:top;">:</td><td><div>38460</div></td></tr><tr><td style="font-weight:bold;vertical-align:top;">REQUEST_METHOD</td><td style="vertical-align:top;">:</td><td><div>GET</div></td></tr><tr><td style="font-weight:bold;vertical-align:top;">SCRIPT_NAME</td><td style="vertical-align:top;">:</td><td><div></div></td></tr><tr><td style="font-weight:bold;vertical-align:top;">SERVER_NAME</td><td style="vertical-align:top;">:</td><td><div>darshan</div></td></tr><tr><td style="font-weight:bold;vertical-align:top;">SERVER_PORT</td><td style="vertical-align:top;">:</td><td><div>8000</div></td></tr><tr><td style="font-weight:bold;vertical-align:top;">SERVER_PROTOCOL</td><td style="vertical-align:top;">:</td><td><div>HTTP/1.1</div></td></tr><tr><td style="font-weight:bold;vertical-align:top;">SERVER_SOFTWARE</td><td style="vertical-align:top;">:</td><td><div>Rocket 1.2.6</div></td></tr><tr><td style="font-weight:bold;vertical-align:top;">app_folders</td><td style="vertical-align:top;">:</td><td><div>set([&#x27;/home/darshan-ubuntu/Project/web2py/applications/admin/&#x27;, &#x27;/home/darshan-ubuntu/Project/web2py/applications/welcome/&#x27;, &#x27;/home/darshan-ubuntu/Project/web2py/applications/PhoneReviews/&#x27;])</div></td></tr><tr><td style="font-weight:bold;vertical-align:top;">applications_parent</td><td style="vertical-align:top;">:</td><td><div>/home/darshan-ubuntu/Project/web2py</div></td></tr><tr><td style="font-weight:bold;vertical-align:top;">cmd_args</td><td style="vertical-align:top;">:</td><td><div><table></table></div></td></tr><tr><td style="font-weight:bold;vertical-align:top;">cmd_options</td><td style="vertical-align:top;">:</td><td><div>&lt;Values at 0x943c2cc: {&#x27;verbose&#x27;: False, &#x27;ip&#x27;: &#x27;127.0.0.1&#x27;, &#x27;debuglevel&#x27;: 30, &#x27;with_scheduler&#x27;: False, &#x27;ips&#x27;: [&#x27;127.0.1.1&#x27;], &#x27;shutdown_timeout&#x27;: 5, &#x27;taskbar&#x27;: False, &#x27;with_coverage&#x27;: False, &#x27;scheduler_groups&#x27;: None, &#x27;port&#x27;: 8000, &#x27;maxthreads&#x27;: None, &#x27;softcron&#x27;: False, &#x27;server_name&#x27;: &#x27;darshan&#x27;, &#x27;bpython&#x27;: False, &#x27;nogui&#x27;: False, &#x27;pid_filename&#x27;: &#x27;httpserver.pid&#x27;, &#x27;extcron&#x27;: False, &#x27;runcron&#x27;: False, &#x27;run_system_tests&#x27;: False, &#x27;test&#x27;: None, &#x27;folder&#x27;: &#x27;/home/darshan-ubuntu/Project/web2py&#x27;, &#x27;config&#x27;: &#x27;&#x27;, &#x27;minthreads&#x27;: None, &#x27;shell&#x27;: None, &#x27;run&#x27;: &#x27;&#x27;, &#x27;log_filename&#x27;: &#x27;httpserver.log&#x27;, &#x27;profiler_dir&#x27;: None, &#x27;args&#x27;: [&#x27;&#x27;], &#x27;socket_timeout&#x27;: 5, &#x27;ssl_ca_certificate&#x27;: None, &#x27;scheduler&#x27;: None, &#x27;interfaces&#x27;: None, &#x27;ssl_private_key&#x27;: &#x27;&#x27;, &#x27;gae&#x27;: None, &#x27;password&#x27;: &#x27;&lt;ask&gt;&#x27;, &#x27;request_queue_size&#x27;: 5, &#x27;ssl_certificate&#x27;: &#x27;&#x27;, &#x27;cronjob&#x27;: False, &#x27;numthreads&#x27;: None, &#x27;quiet&#x27;: False, &#x27;import_models&#x27;: False, &#x27;timeout&#x27;: 10, &#x27;plain&#x27;: False, &#x27;nobanner&#x27;: False}&gt;</div></td></tr><tr><td style="font-weight:bold;vertical-align:top;">db_sessions</td><td style="vertical-align:top;">:</td><td><div>set([])</div></td></tr><tr><td style="font-weight:bold;vertical-align:top;">debugging</td><td style="vertical-align:top;">:</td><td><div>False</div></td></tr><tr><td style="font-weight:bold;vertical-align:top;">gluon_parent</td><td style="vertical-align:top;">:</td><td><div>/home/darshan-ubuntu/Project/web2py</div></td></tr><tr><td style="font-weight:bold;vertical-align:top;">http_accept</td><td style="vertical-align:top;">:</td><td><div>text/html,application/xhtml+xml,application/xml;q=0.9,*/*;q=0.8</div></td></tr><tr><td style="font-weight:bold;vertical-align:top;">http_accept_encoding</td><td style="vertical-align:top;">:</td><td><div>gzip, deflate</div></td></tr><tr><td style="font-weight:bold;vertical-align:top;">http_accept_language</td><td style="vertical-align:top;">:</td><td><div>en-US,en;q=0.5</div></td></tr><tr><td style="font-weight:bold;vertical-align:top;">http_cache_control</td><td style="vertical-align:top;">:</td><td><div>max-age=0</div></td></tr><tr><td style="font-weight:bold;vertical-align:top;">http_connection</td><td style="vertical-align:top;">:</td><td><div>keep-alive</div></td></tr><tr><td style="font-weight:bold;vertical-align:top;">http_cookie</td><td style="vertical-align:top;">:</td><td><div>registered=yes; session_id_welcome=127.0.0.1-98121f02-af99-4b9f-b7de-204adb560a76; session_id_phonereviews=127.0.0.1-fa1b37d9-118b-4135-a6e1-d9d8732de482; session_id_admin=127.0.0.1-d0b72aa3-2e9c-42d4-b7ba-1b34ca07b58d</div></td></tr><tr><td style="font-weight:bold;vertical-align:top;">http_host</td><td style="vertical-align:top;">:</td><td><div>127.0.0.1:8000</div></td></tr><tr><td style="font-weight:bold;vertical-align:top;">http_user_agent</td><td style="vertical-align:top;">:</td><td><div>Mozilla/5.0 (X11; Ubuntu; Linux i686; rv:27.0) Gecko/20100101 Firefox/27.0</div></td></tr><tr><td style="font-weight:bold;vertical-align:top;">is_jython</td><td style="vertical-align:top;">:</td><td><div>False</div></td></tr><tr><td style="font-weight:bold;vertical-align:top;">is_pypy</td><td style="vertical-align:top;">:</td><td><div>False</div></td></tr><tr><td style="font-weight:bold;vertical-align:top;">is_source</td><td style="vertical-align:top;">:</td><td><div>True</div></td></tr><tr><td style="font-weight:bold;vertical-align:top;">local_hosts</td><td style="vertical-align:top;">:</td><td><div><table><tr><td><div>darshan</div></td></tr><tr><td><div>::1</div></td></tr><tr><td><div>127.0.1.1</div></td></tr><tr><td><div>::ffff:127.0.0.1</div></td></tr><tr><td><div>127.0.0.1</div></td></tr></table></div></td></tr><tr><td style="font-weight:bold;vertical-align:top;">path_info</td><td style="vertical-align:top;">:</td><td><div>/PhoneReviews/default/features</div></td></tr><tr><td style="font-weight:bold;vertical-align:top;">query_string</td><td style="vertical-align:top;">:</td><td><div>manufacturer=Nexus&amp;phone=Google+Nexus+5&amp;user=None</div></td></tr><tr><td style="font-weight:bold;vertical-align:top;">remote_addr</td><td style="vertical-align:top;">:</td><td><div>127.0.0.1</div></td></tr><tr><td style="font-weight:bold;vertical-align:top;">remote_port</td><td style="vertical-align:top;">:</td><td><div>38460</div></td></tr><tr><td style="font-weight:bold;vertical-align:top;">request_method</td><td style="vertical-align:top;">:</td><td><div>GET</div></td></tr><tr><td style="font-weight:bold;vertical-align:top;">request_uri</td><td style="vertical-align:top;">:</td><td><div>/PhoneReviews/default/features?manufacturer=Nexus&amp;phone=Google+Nexus+5&amp;user=None</div></td></tr><tr><td style="font-weight:bold;vertical-align:top;">script_name</td><td style="vertical-align:top;">:</td><td><div></div></td></tr><tr><td style="font-weight:bold;vertical-align:top;">server_name</td><td style="vertical-align:top;">:</td><td><div>darshan</div></td></tr><tr><td style="font-weight:bold;vertical-align:top;">server_port</td><td style="vertical-align:top;">:</td><td><div>8000</div></td></tr><tr><td style="font-weight:bold;vertical-align:top;">server_protocol</td><td style="vertical-align:top;">:</td><td><div>HTTP/1.1</div></td></tr><tr><td style="font-weight:bold;vertical-align:top;">server_software</td><td style="vertical-align:top;">:</td><td><div>Rocket 1.2.6</div></td></tr><tr><td style="font-weight:bold;vertical-align:top;">web2py_path</td><td style="vertical-align:top;">:</td><td><div>/home/darshan-ubuntu/Project/web2py</div></td></tr><tr><td style="font-weight:bold;vertical-align:top;">web2py_version</td><td style="vertical-align:top;">:</td><td><div>2.9.5-trunk+timestamp.2014.04.02.09.18.42</div></td></tr><tr><td style="font-weight:bold;vertical-align:top;">wsgi.errors</td><td style="vertical-align:top;">:</td><td><div>&lt;open file &#x27;&lt;stderr&gt;&#x27;, mode &#x27;w&#x27; at 0xb75110d0&gt;</div></td></tr><tr><td style="font-weight:bold;vertical-align:top;">wsgi.file_wrapper</td><td style="vertical-align:top;">:</td><td><div>&lt;class wsgiref.util.FileWrapper at 0x95a57dc&gt;</div></td></tr><tr><td style="font-weight:bold;vertical-align:top;">wsgi.input</td><td style="vertical-align:top;">:</td><td><div>&lt;socket._fileobject object at 0xac57e36c&gt;</div></td></tr><tr><td style="font-weight:bold;vertical-align:top;">wsgi.multiprocess</td><td style="vertical-align:top;">:</td><td><div>False</div></td></tr><tr><td style="font-weight:bold;vertical-align:top;">wsgi.multithread</td><td style="vertical-align:top;">:</td><td><div>True</div></td></tr><tr><td style="font-weight:bold;vertical-align:top;">wsgi.run_once</td><td style="vertical-align:top;">:</td><td><div>False</div></td></tr><tr><td style="font-weight:bold;vertical-align:top;">wsgi.url_scheme</td><td style="vertical-align:top;">:</td><td><div>http</div></td></tr><tr><td style="font-weight:bold;vertical-align:top;">wsgi.version</td><td style="vertical-align:top;">:</td><td><div><table><tr><td><div>1</div></td></tr><tr><td><div>0</div></td></tr></table></div></td></tr><tr><td style="font-weight:bold;vertical-align:top;">wsgi_errors</td><td style="vertical-align:top;">:</td><td><div>&lt;open file &#x27;&lt;stderr&gt;&#x27;, mode &#x27;w&#x27; at 0xb75110d0&gt;</div></td></tr><tr><td style="font-weight:bold;vertical-align:top;">wsgi_file_wrapper</td><td style="vertical-align:top;">:</td><td><div>&lt;class wsgiref.util.FileWrapper at 0x95a57dc&gt;</div></td></tr><tr><td style="font-weight:bold;vertical-align:top;">wsgi_input</td><td style="vertical-align:top;">:</td><td><div>&lt;socket._fileobject object at 0xac57e36c&gt;</div></td></tr><tr><td style="font-weight:bold;vertical-align:top;">wsgi_multiprocess</td><td style="vertical-align:top;">:</td><td><div>False</div></td></tr><tr><td style="font-weight:bold;vertical-align:top;">wsgi_multithread</td><td style="vertical-align:top;">:</td><td><div>True</div></td></tr><tr><td style="font-weight:bold;vertical-align:top;">wsgi_run_once</td><td style="vertical-align:top;">:</td><td><div>False</div></td></tr><tr><td style="font-weight:bold;vertical-align:top;">wsgi_url_scheme</td><td style="vertical-align:top;">:</td><td><div>http</div></td></tr><tr><td style="font-weight:bold;vertical-align:top;">wsgi_version</td><td style="vertical-align:top;">:</td><td><div><table><tr><td><div>1</div></td></tr><tr><td><div>0</div></td></tr></table></div></td></tr></table></div></td></tr><tr><td style="font-weight:bold;vertical-align:top;">extension</td><td style="vertical-align:top;">:</td><td><div>html</div></td></tr><tr><td style="font-weight:bold;vertical-align:top;">folder</td><td style="vertical-align:top;">:</td><td><div>/home/darshan-ubuntu/Project/web2py/applications/PhoneReviews/</div></td></tr><tr><td style="font-weight:bold;vertical-align:top;">function</td><td style="vertical-align:top;">:</td><td><div>features</div></td></tr><tr><td style="font-weight:bold;vertical-align:top;">global_settings</td><td style="vertical-align:top;">:</td><td><div><table><tr><td style="font-weight:bold;vertical-align:top;">app_folders</td><td style="vertical-align:top;">:</td><td><div>set([&#x27;/home/darshan-ubuntu/Project/web2py/applications/admin/&#x27;, &#x27;/home/darshan-ubuntu/Project/web2py/applications/welcome/&#x27;, &#x27;/home/darshan-ubuntu/Project/web2py/applications/PhoneReviews/&#x27;])</div></td></tr><tr><td style="font-weight:bold;vertical-align:top;">applications_parent</td><td style="vertical-align:top;">:</td><td><div>/home/darshan-ubuntu/Project/web2py</div></td></tr><tr><td style="font-weight:bold;vertical-align:top;">cmd_args</td><td style="vertical-align:top;">:</td><td><div><table></table></div></td></tr><tr><td style="font-weight:bold;vertical-align:top;">cmd_options</td><td style="vertical-align:top;">:</td><td><div>&lt;Values at 0x943c2cc: {&#x27;verbose&#x27;: False, &#x27;ip&#x27;: &#x27;127.0.0.1&#x27;, &#x27;debuglevel&#x27;: 30, &#x27;with_scheduler&#x27;: False, &#x27;ips&#x27;: [&#x27;127.0.1.1&#x27;], &#x27;shutdown_timeout&#x27;: 5, &#x27;taskbar&#x27;: False, &#x27;with_coverage&#x27;: False, &#x27;scheduler_groups&#x27;: None, &#x27;port&#x27;: 8000, &#x27;maxthreads&#x27;: None, &#x27;softcron&#x27;: False, &#x27;server_name&#x27;: &#x27;darshan&#x27;, &#x27;bpython&#x27;: False, &#x27;nogui&#x27;: False, &#x27;pid_filename&#x27;: &#x27;httpserver.pid&#x27;, &#x27;extcron&#x27;: False, &#x27;runcron&#x27;: False, &#x27;run_system_tests&#x27;: False, &#x27;test&#x27;: None, &#x27;folder&#x27;: &#x27;/home/darshan-ubuntu/Project/web2py&#x27;, &#x27;config&#x27;: &#x27;&#x27;, &#x27;minthreads&#x27;: None, &#x27;shell&#x27;: None, &#x27;run&#x27;: &#x27;&#x27;, &#x27;log_filename&#x27;: &#x27;httpserver.log&#x27;, &#x27;profiler_dir&#x27;: None, &#x27;args&#x27;: [&#x27;&#x27;], &#x27;socket_timeout&#x27;: 5, &#x27;ssl_ca_certificate&#x27;: None, &#x27;scheduler&#x27;: None, &#x27;interfaces&#x27;: None, &#x27;ssl_private_key&#x27;: &#x27;&#x27;, &#x27;gae&#x27;: None, &#x27;password&#x27;: &#x27;&lt;ask&gt;&#x27;, &#x27;request_queue_size&#x27;: 5, &#x27;ssl_certificate&#x27;: &#x27;&#x27;, &#x27;cronjob&#x27;: False, &#x27;numthreads&#x27;: None, &#x27;quiet&#x27;: False, &#x27;import_models&#x27;: False, &#x27;timeout&#x27;: 10, &#x27;plain&#x27;: False, &#x27;nobanner&#x27;: False}&gt;</div></td></tr><tr><td style="font-weight:bold;vertical-align:top;">db_sessions</td><td style="vertical-align:top;">:</td><td><div>set([])</div></td></tr><tr><td style="font-weight:bold;vertical-align:top;">debugging</td><td style="vertical-align:top;">:</td><td><div>False</div></td></tr><tr><td style="font-weight:bold;vertical-align:top;">gluon_parent</td><td style="vertical-align:top;">:</td><td><div>/home/darshan-ubuntu/Project/web2py</div></td></tr><tr><td style="font-weight:bold;vertical-align:top;">is_jython</td><td style="vertical-align:top;">:</td><td><div>False</div></td></tr><tr><td style="font-weight:bold;vertical-align:top;">is_pypy</td><td style="vertical-align:top;">:</td><td><div>False</div></td></tr><tr><td style="font-weight:bold;vertical-align:top;">is_source</td><td style="vertical-align:top;">:</td><td><div>True</div></td></tr><tr><td style="font-weight:bold;vertical-align:top;">local_hosts</td><td style="vertical-align:top;">:</td><td><div><table><tr><td><div>darshan</div></td></tr><tr><td><div>::1</div></td></tr><tr><td><div>127.0.1.1</div></td></tr><tr><td><div>::ffff:127.0.0.1</div></td></tr><tr><td><div>127.0.0.1</div></td></tr></table></div></td></tr><tr><td style="font-weight:bold;vertical-align:top;">web2py_version</td><td style="vertical-align:top;">:</td><td><div>2.9.5-trunk+timestamp.2014.04.02.09.18.42</div></td></tr></table></div></td></tr><tr><td style="font-weight:bold;vertical-align:top;">is_https</td><td style="vertical-align:top;">:</td><td><div>False</div></td></tr><tr><td style="font-weight:bold;vertical-align:top;">is_local</td><td style="vertical-align:top;">:</td><td><div>True</div></td></tr><tr><td style="font-weight:bold;vertical-align:top;">is_restful</td><td style="vertical-align:top;">:</td><td><div>False</div></td></tr><tr><td style="font-weight:bold;vertical-align:top;">now</td><td style="vertical-align:top;">:</td><td><div>datetime.datetime(2014, 4, 19, 14, 3, 58, 699694)</div></td></tr><tr><td style="font-weight:bold;vertical-align:top;">raw_args</td><td style="vertical-align:top;">:</td><td><div></div></td></tr><tr><td style="font-weight:bold;vertical-align:top;">raw_extension</td><td style="vertical-align:top;">:</td><td><div>None</div></td></tr><tr><td style="font-weight:bold;vertical-align:top;">url</td><td style="vertical-align:top;">:</td><td><div>/PhoneReviews/default/features</div></td></tr><tr><td style="font-weight:bold;vertical-align:top;">utcnow</td><td style="vertical-align:top;">:</td><td><div>datetime.datetime(2014, 4, 19, 8, 33, 58, 699735)</div></td></tr><tr><td style="font-weight:bold;vertical-align:top;">uuid</td><td style="vertical-align:top;">:</td><td><div>PhoneReviews/127.0.0.1.2014-04-19.14-03-58.db27bde2-d7cd-48a7-9afc-264c5b833b4b</div></td></tr><tr><td style="font-weight:bold;vertical-align:top;">wsgi</td><td style="vertical-align:top;">:</td><td><div>&lt;gluon.main.LazyWSGI object at 0xabef442c&gt;</div></td></tr></table></div>'
tRp58
sS'frames'
p59
(lp60
(dp61
S'file'
p62
S'/home/darshan-ubuntu/Project/web2py/gluon/restricted.py'
p63
sS'dump'
p64
(dp65
S'environment'
p66
S"{'A': <class 'gluon.html.A'>, 'ANY_OF': <class 'gluon.validators.ANY_OF'>, 'Auth': <class 'gluon.tools.Auth'>, 'B': <class 'gluon.html.B'>, 'BEAUTIFY': <class 'gluon.html.BEAUTIFY'>, 'BODY': <class 'gluon.html.BODY'>, 'BR': <class 'gluon.html.BR'>, 'BUTTON': <class 'gluon.html.BUTTON'>, 'CAT': <class 'gluon.html.CAT'>, 'CENTER': <class 'gluon.html.CENTER'>, ...}"
p67
sS'ccode'
p68
S'<code object <module> at 0xab11b890, file "/home...honeReviews/views/default/features.html", line 1>'
p69
ssS'lnum'
p70
I220
sS'lines'
p71
(dp72
I224
S'        # do not encapsulate (obfuscate) the original RestrictedError'
p73
sI215
S'    try:'
p74
sI216
S'        if isinstance(code, types.CodeType):'
p75
sI217
S'            ccode = code'
p76
sI218
S'        else:'
p77
sI219
S'            ccode = compile2(code, layer)'
p78
sI220
S'        exec ccode in environment'
p79
sI221
S'    except HTTP:'
p80
sI222
S'        raise'
p81
sI223
S'    except RestrictedError:'
p82
ssS'call'
p83
S'(code=\'response.write(\\\'<html>\\\\n\\\\t\\\', escape=False)\\nimpor...00px;\\\'></div>\\\\n  </body>\\\\n</html>", escape=False)\', environment={\'A\': <class \'gluon.html.A\'>, \'ANY_OF\': <class \'gluon.validators.ANY_OF\'>, \'Auth\': <class \'gluon.tools.Auth\'>, \'B\': <class \'gluon.html.B\'>, \'BEAUTIFY\': <class \'gluon.html.BEAUTIFY\'>, \'BODY\': <class \'gluon.html.BODY\'>, \'BR\': <class \'gluon.html.BR\'>, \'BUTTON\': <class \'gluon.html.BUTTON\'>, \'CAT\': <class \'gluon.html.CAT\'>, \'CENTER\': <class \'gluon.html.CENTER\'>, ...}, layer=\'/home/darshan-ubuntu/Project/web2py/applications/PhoneReviews/views/default/features.html\')'
p84
sS'func'
p85
S'restricted'
p86
sa(dp87
g62
S'/home/darshan-ubuntu/Project/web2py/applications/PhoneReviews/views/default/features.html'
p88
sg64
(dp89
S'google'
p90
S'undefined'
p91
ssg70
I8
sg71
(dp92
I1
S"response.write('<html>\\n\\t', escape=False)"
p93
sI2
S'import datetime,time'
p94
sI3
S"response.write('\\n\\t', escape=False)"
p95
sI4
S'rows = db(db.reviews.types==1).select()'
p96
sI5
S'response.write(\'\\n\\t<ol style="padding-left:0.4cm; padding-top:0.5cm">\\n\\t  <head>\\n    <script type=\\\'text/javascript\\\' src=\\\'http://www.google.com/jsapi\\\'></script>\\n    <script type=\\\'text/javascript\\\'>\\n      google.load(\\\'visualization\\\', \\\'1.1\\\', {\\\'packages\\\':[\\\'annotationchart\\\']});\\n      google.setOnLoadCallback(drawChart);\\n\\n      function drawChart() {\\n        var data = new google.visualization.DataTable();\\n        data.addColumn(\\\'date\\\', \\\'Date\\\');\\n        data.addColumn(\\\'number\\\', \\\'Kepler-22b mission\\\');\\n        data.addRows([\\n\\t\\t\', escape=False)'
p97
sI6
S'for r in rows:'
p98
sI7
S'    response.write(\'\\n\\t\\t{date=datetime.datetime.strptime(r.dates.strip(),"%B %d, %Y")}}         \\n\\t\\t[new Date(\', escape=False)'
p99
sI8
S'    response.write(int(\'{0:%Y}\'.format(date,"year")))'
p100
sI9
S"    response.write(', 2, 17), 35022],\\n        \\t]);\\n        ', escape=False)"
p101
sI10
S'    pass'
p102
sI11
S'response.write("\\n        var chart = new google.visualization.AnnotationChart(document.getElementById(\'chart_div\'));\\n\\n        var options = {\\n          displayAnnotations: true,\\n        };\\n\\n        chart.draw(data, options);\\n      }\\n    </script>\\n  </head>\\n\\n  <body>\\n    <div id=\'chart_div\' style=\'width: 900px; height: 500px;\'></div>\\n  </body>\\n</html>", escape=False)'
p103
ssg83
S'()'
p104
sg85
S'<module>'
p105
sasS'pyver'
p106
S'Python 2.7.5+: /usr/bin/python (prefix: /usr)'
p107
sS'session'
p108
g57
(S's\x1a\x00\x00\x00<div><table></table></div>'
tRp109
sS'etype'
p110
S"<type 'exceptions.NameError'>"
p111
sS'date'
p112
S'Sat Apr 19 14:03:58 2014'
p113
sS'response'
p114
g57
(S'sy2\x00\x00<div><table><tr><td style="font-weight:bold;vertical-align:top;">body</td><td style="vertical-align:top;">:</td><td><div>&lt;cStringIO.StringO object at 0xab107f80&gt;</div></td></tr><tr><td style="font-weight:bold;vertical-align:top;">cookies</td><td style="vertical-align:top;">:</td><td><div><table><tr><td style="font-weight:bold;vertical-align:top;">session_id_phonereviews</td><td style="vertical-align:top;">:</td><td><div>127.0.0.1-fa1b37d9-118b-4135-a6e1-d9d8732de482<table><tr><td style="font-weight:bold;vertical-align:top;">comment</td><td style="vertical-align:top;">:</td><td><div></div></td></tr><tr><td style="font-weight:bold;vertical-align:top;">domain</td><td style="vertical-align:top;">:</td><td><div></div></td></tr><tr><td style="font-weight:bold;vertical-align:top;">expires</td><td style="vertical-align:top;">:</td><td><div></div></td></tr><tr><td style="font-weight:bold;vertical-align:top;">httponly</td><td style="vertical-align:top;">:</td><td><div></div></td></tr><tr><td style="font-weight:bold;vertical-align:top;">max-age</td><td style="vertical-align:top;">:</td><td><div></div></td></tr><tr><td style="font-weight:bold;vertical-align:top;">path</td><td style="vertical-align:top;">:</td><td><div>/</div></td></tr><tr><td style="font-weight:bold;vertical-align:top;">secure</td><td style="vertical-align:top;">:</td><td><div></div></td></tr><tr><td style="font-weight:bold;vertical-align:top;">version</td><td style="vertical-align:top;">:</td><td><div></div></td></tr></table></div></td></tr></table></div></td></tr><tr><td style="font-weight:bold;vertical-align:top;">delimiters</td><td style="vertical-align:top;">:</td><td><div><table><tr><td><div>{{</div></td></tr><tr><td><div>}}</div></td></tr></table></div></td></tr><tr><td style="font-weight:bold;vertical-align:top;">files</td><td style="vertical-align:top;">:</td><td><div><table></table></div></td></tr><tr><td style="font-weight:bold;vertical-align:top;">flash</td><td style="vertical-align:top;">:</td><td><div></div></td></tr><tr><td style="font-weight:bold;vertical-align:top;">generic_patterns</td><td style="vertical-align:top;">:</td><td><div><table><tr><td><div>*</div></td></tr></table></div></td></tr><tr><td style="font-weight:bold;vertical-align:top;">google_analytics_id</td><td style="vertical-align:top;">:</td><td><div>None</div></td></tr><tr><td style="font-weight:bold;vertical-align:top;">headers</td><td style="vertical-align:top;">:</td><td><div><table><tr><td style="font-weight:bold;vertical-align:top;">X-Powered-By</td><td style="vertical-align:top;">:</td><td><div>web2py</div></td></tr></table></div></td></tr><tr><td style="font-weight:bold;vertical-align:top;">logo</td><td style="vertical-align:top;">:</td><td><div><a class="brand" href="http://www.web2py.com/"><b>web<span>2</span>py</b>&trade;&nbsp;</a></div></td></tr><tr><td style="font-weight:bold;vertical-align:top;">menu</td><td style="vertical-align:top;">:</td><td><div><table><tr><td><div><table><tr><td><div>Home</div></td></tr><tr><td><div>False</div></td></tr><tr><td><div>/PhoneReviews/default/index</div></td></tr><tr><td><div><table></table></div></td></tr></table></div></td></tr><tr><td><div><table><tr><td><div><span class="highlighted">web2py</span></div></td></tr><tr><td><div>False</div></td></tr><tr><td><div>http://web2py.com</div></td></tr><tr><td><div><table><tr><td><div><table><tr><td><div>My Sites</div></td></tr><tr><td><div>False</div></td></tr><tr><td><div>/admin/default/site</div></td></tr></table></div></td></tr><tr><td><div><table><tr><td><div>This App</div></td></tr><tr><td><div>False</div></td></tr><tr><td><div>/admin/default/design/PhoneReviews</div></td></tr><tr><td><div>[(&lt;lazyT &#x27;Controller&#x27;&gt;, False, &#x27;/admin/default/edit/PhoneReviews/controllers/default.py&#x27;), (&lt;lazyT &#x27;View&#x27;&gt;, False, &#x27;/admin/default/edit/PhoneReviews/views/default/features.html&#x27;), (&lt;lazyT &#x27;Layout&#x27;&gt;, False, &#x27;/admin/default/edit/PhoneReviews/views/layout.html&#x27;), (&lt;lazyT &#x27;Stylesheet&#x27;&gt;, False, &#x27;/admin/default/edit/PhoneReviews/static/css/web2py.css&#x27;), (&lt;lazyT &#x27;DB Model&#x27;&gt;, False, &#x27;/admin/default/edit/PhoneReviews/models/db.py&#x27;), (&lt;lazyT &#x27;Menu Model&#x27;&gt;, False, &#x27;/admin/default/edit/PhoneReviews/models/menu.py&#x27;), (&lt;lazyT &#x27;Database&#x27;&gt;, False, &#x27;/PhoneReviews/appadmin/index&#x27;), (&lt;lazyT &#x27;Errors&#x27;&gt;, False, &#x27;/admin/default/errors/PhoneReviews&#x27;), (&lt;lazyT &#x27;About&#x27;&gt;, False, &#x27;/admin/default/about/PhoneReviews&#x27;)]</div></td></tr></table></div></td></tr><tr><td><div><table><tr><td><div>web2py.com</div></td></tr><tr><td><div>False</div></td></tr><tr><td><div>http://www.web2py.com</div></td></tr><tr><td><div>[(&lt;lazyT &#x27;Download&#x27;&gt;, False, &#x27;http://www.web2py.com/examples/default/download&#x27;), (&lt;lazyT &#x27;Support&#x27;&gt;, False, &#x27;http://www.web2py.com/examples/default/support&#x27;), (&lt;lazyT &#x27;Demo&#x27;&gt;, False, &#x27;http://web2py.com/demo_admin&#x27;), (&lt;lazyT &#x27;Quick Examples&#x27;&gt;, False, &#x27;http://web2py.com/examples/default/examples&#x27;), (&lt;lazyT &#x27;FAQ&#x27;&gt;, False, &#x27;http://web2py.com/AlterEgo&#x27;), (&lt;lazyT &#x27;Videos&#x27;&gt;, False, &#x27;http://www.web2py.com/examples/default/videos/&#x27;), (&lt;lazyT &#x27;Free Applications&#x27;&gt;, False, &#x27;http://web2py.com/appliances&#x27;), (&lt;lazyT &#x27;Plugins&#x27;&gt;, False, &#x27;http://web2py.com/plugins&#x27;), (&lt;lazyT &#x27;Layouts&#x27;&gt;, False, &#x27;http://web2py.com/layouts&#x27;), (&lt;lazyT &#x27;Recipes&#x27;&gt;, False, &#x27;http://web2pyslices.com/&#x27;), (&lt;lazyT &#x27;Semantic&#x27;&gt;, False, &#x27;http://web2py.com/semantic&#x27;)]</div></td></tr></table></div></td></tr><tr><td><div><table><tr><td><div>Documentation</div></td></tr><tr><td><div>False</div></td></tr><tr><td><div>http://www.web2py.com/book</div></td></tr><tr><td><div>[(&lt;lazyT &#x27;Preface&#x27;&gt;, False, &#x27;http://www.web2py.com/book/default/chapter/00&#x27;), (&lt;lazyT &#x27;Introduction&#x27;&gt;, False, &#x27;http://www.web2py.com/book/default/chapter/01&#x27;), (&lt;lazyT &#x27;Python&#x27;&gt;, False, &#x27;http://www.web2py.com/book/default/chapter/02&#x27;), (&lt;lazyT &#x27;Overview&#x27;&gt;, False, &#x27;http://www.web2py.com/book/default/chapter/03&#x27;), (&lt;lazyT &#x27;The Core&#x27;&gt;, False, &#x27;http://www.web2py.com/book/default/chapter/04&#x27;), (&lt;lazyT &#x27;The Views&#x27;&gt;, False, &#x27;http://www.web2py.com/book/default/chapter/05&#x27;), (&lt;lazyT &#x27;Database&#x27;&gt;, False, &#x27;http://www.web2py.com/book/default/chapter/06&#x27;), (&lt;lazyT &#x27;Forms and Validators&#x27;&gt;, False, &#x27;http://www.web2py.com/book/default/chapter/07&#x27;), (&lt;lazyT &#x27;Email and SMS&#x27;&gt;, False, &#x27;http://www.web2py.com/book/default/chapter/08&#x27;), (&lt;lazyT &#x27;Access Control&#x27;&gt;, False, &#x27;http://www.web2py.com/book/default/chapter/09&#x27;), (&lt;lazyT &#x27;Services&#x27;&gt;, False, &#x27;http://www.web2py.com/book/default/chapter/10&#x27;), (&lt;lazyT &#x27;Ajax Recipes&#x27;&gt;, False, &#x27;http://www.web2py.com/book/default/chapter/11&#x27;), (&lt;lazyT &#x27;Components and Plugins&#x27;&gt;, False, &#x27;http://www.web2py.com/book/default/chapter/12&#x27;), (&lt;lazyT &#x27;Deployment Recipes&#x27;&gt;, False, &#x27;http://www.web2py.com/book/default/chapter/13&#x27;), (&lt;lazyT &#x27;Other Recipes&#x27;&gt;, False, &#x27;http://www.web2py.com/book/default/chapter/14&#x27;), (&lt;lazyT &#x27;Buy this book&#x27;&gt;, False, &#x27;http://stores.lulu.com/web2py&#x27;)]</div></td></tr></table></div></td></tr><tr><td><div><table><tr><td><div>Community</div></td></tr><tr><td><div>False</div></td></tr><tr><td><div>None</div></td></tr><tr><td><div>[(&lt;lazyT &#x27;Groups&#x27;&gt;, False, &#x27;http://www.web2py.com/examples/default/usergroups&#x27;), (&lt;lazyT &#x27;Twitter&#x27;&gt;, False, &#x27;http://twitter.com/web2py&#x27;), (&lt;lazyT &#x27;Live Chat&#x27;&gt;, False, &#x27;http://webchat.freenode.net/?channels=web2py&#x27;)]</div></td></tr></table></div></td></tr><tr><td><div><table><tr><td><div>Plugins</div></td></tr><tr><td><div>False</div></td></tr><tr><td><div>None</div></td></tr><tr><td><div>[(&#x27;plugin_wiki&#x27;, False, &#x27;http://web2py.com/examples/default/download&#x27;), (&lt;lazyT &#x27;Other Plugins&#x27;&gt;, False, &#x27;http://web2py.com/plugins&#x27;), (&lt;lazyT &#x27;Layout Plugins&#x27;&gt;, False, &#x27;http://web2py.com/layouts&#x27;)]</div></td></tr></table></div></td></tr></table></div></td></tr></table></div></td></tr></table></div></td></tr><tr><td style="font-weight:bold;vertical-align:top;">meta</td><td style="vertical-align:top;">:</td><td><div><table><tr><td style="font-weight:bold;vertical-align:top;">author</td><td style="vertical-align:top;">:</td><td><div>Your Name &lt;you@example.com&gt;</div></td></tr><tr><td style="font-weight:bold;vertical-align:top;">description</td><td style="vertical-align:top;">:</td><td><div>a cool new app</div></td></tr><tr><td style="font-weight:bold;vertical-align:top;">generator</td><td style="vertical-align:top;">:</td><td><div>Web2py Web Framework</div></td></tr><tr><td style="font-weight:bold;vertical-align:top;">keywords</td><td style="vertical-align:top;">:</td><td><div>web2py, python, framework</div></td></tr></table></div></td></tr><tr><td style="font-weight:bold;vertical-align:top;">models_to_run</td><td style="vertical-align:top;">:</td><td><div><table><tr><td><div>^\\w+\\.py$</div></td></tr><tr><td><div>^default/\\w+\\.py$</div></td></tr><tr><td><div>^default/features/\\w+\\.py$</div></td></tr></table></div></td></tr><tr><td style="font-weight:bold;vertical-align:top;">postprocessing</td><td style="vertical-align:top;">:</td><td><div><table></table></div></td></tr><tr><td style="font-weight:bold;vertical-align:top;">session_client</td><td style="vertical-align:top;">:</td><td><div>127.0.0.1</div></td></tr><tr><td style="font-weight:bold;vertical-align:top;">session_cookie_compression_level</td><td style="vertical-align:top;">:</td><td><div>None</div></td></tr><tr><td style="font-weight:bold;vertical-align:top;">session_cookie_expires</td><td style="vertical-align:top;">:</td><td><div>None</div></td></tr><tr><td style="font-weight:bold;vertical-align:top;">session_cookie_key</td><td style="vertical-align:top;">:</td><td><div>None</div></td></tr><tr><td style="font-weight:bold;vertical-align:top;">session_data_name</td><td style="vertical-align:top;">:</td><td><div>session_data_phonereviews</div></td></tr><tr><td style="font-weight:bold;vertical-align:top;">session_file</td><td style="vertical-align:top;">:</td><td><div>&lt;open file &#x27;/home/darshan-ubuntu/Project/web2py/applications/PhoneReviews/sessions/127.0.0.1-fa1b37d9-118b-4135-a6e1-d9d8732de482&#x27;, mode &#x27;rb+&#x27; at 0xab99eb78&gt;</div></td></tr><tr><td style="font-weight:bold;vertical-align:top;">session_filename</td><td style="vertical-align:top;">:</td><td><div>/home/darshan-ubuntu/Project/web2py/applications/PhoneReviews/sessions/127.0.0.1-fa1b37d9-118b-4135-a6e1-d9d8732de482</div></td></tr><tr><td style="font-weight:bold;vertical-align:top;">session_hash</td><td style="vertical-align:top;">:</td><td><div>c23a8377045ca7845dfdaea9e6f66fc7</div></td></tr><tr><td style="font-weight:bold;vertical-align:top;">session_id</td><td style="vertical-align:top;">:</td><td><div>127.0.0.1-fa1b37d9-118b-4135-a6e1-d9d8732de482</div></td></tr><tr><td style="font-weight:bold;vertical-align:top;">session_id_name</td><td style="vertical-align:top;">:</td><td><div>session_id_phonereviews</div></td></tr><tr><td style="font-weight:bold;vertical-align:top;">session_locked</td><td style="vertical-align:top;">:</td><td><div>True</div></td></tr><tr><td style="font-weight:bold;vertical-align:top;">session_masterapp</td><td style="vertical-align:top;">:</td><td><div>PhoneReviews</div></td></tr><tr><td style="font-weight:bold;vertical-align:top;">session_new</td><td style="vertical-align:top;">:</td><td><div>False</div></td></tr><tr><td style="font-weight:bold;vertical-align:top;">session_storage_type</td><td style="vertical-align:top;">:</td><td><div>file</div></td></tr><tr><td style="font-weight:bold;vertical-align:top;">status</td><td style="vertical-align:top;">:</td><td><div>200</div></td></tr><tr><td style="font-weight:bold;vertical-align:top;">subtitle</td><td style="vertical-align:top;">:</td><td><div></div></td></tr><tr><td style="font-weight:bold;vertical-align:top;">title</td><td style="vertical-align:top;">:</td><td><div>Phonereviews</div></td></tr><tr><td style="font-weight:bold;vertical-align:top;">view</td><td style="vertical-align:top;">:</td><td><div>default/features.html</div></td></tr></table></div>'
tRp115
sS'locals'
p116
(dp117
S'Service'
p118
S"<class 'gluon.tools.Service'>"
p119
sS'OBJECT'
p120
S"<class 'gluon.html.OBJECT'>"
p121
sS'SQLDB'
p122
S"<class 'gluon.dal.DAL'>"
p123
sg108
S"<Storage {'_user_agent': <Storage {'os': <Storag...orage {'version': '27.0', 'name': 'Firefox'}>}>}>"
p124
sS'LINK'
p125
S"<class 'gluon.html.LINK'>"
p126
sS'BR'
p127
S"<class 'gluon.html.BR'>"
p128
sS'local_import'
p129
S'<function <lambda>>'
p130
sS'OPTGROUP'
p131
S"<class 'gluon.html.OPTGROUP'>"
p132
sS'__package__'
p133
S'None'
p134
sS'PRE'
p135
S"<class 'gluon.html.PRE'>"
p136
sS'IS_INT_IN_RANGE'
p137
S"<class 'gluon.validators.IS_INT_IN_RANGE'>"
p138
sS'IS_LOWER'
p139
S"<class 'gluon.validators.IS_LOWER'>"
p140
sS'IS_STRONG'
p141
S"<class 'gluon.validators.IS_STRONG'>"
p142
sS'cache'
p143
S'<gluon.cache.Cache object>'
p144
sS'IS_IN_DB'
p145
S"<class 'gluon.validators.IS_IN_DB'>"
p146
sS'TAG'
p147
S'<gluon.html.__TAG__ object>'
p148
sS'SQLField'
p149
S"<class 'gluon.dal.Field'>"
p150
sS'mail'
p151
S'<gluon.tools.Mail object>'
p152
sS'BODY'
p153
S"<class 'gluon.html.BODY'>"
p154
sS'IS_DATE_IN_RANGE'
p155
S"<class 'gluon.validators.IS_DATE_IN_RANGE'>"
p156
sS'IFRAME'
p157
S"<class 'gluon.html.IFRAME'>"
p158
sS'URL'
p159
S'<function URL>'
p160
sS'__file__'
p161
S"'/home/darshan-ubuntu/Project/web2py/applications/PhoneReviews/views/default/features.html'"
p162
sS'db'
p163
S'<DAL uri="mysql:******@localhost/phone_reviews">'
p164
sS'auth'
p165
S'<gluon.tools.Auth object>'
p166
sS'P'
S"<class 'gluon.html.P'>"
p167
sS'TFOOT'
p168
S"<class 'gluon.html.TFOOT'>"
p169
sS'XHTML'
p170
S"<class 'gluon.html.XHTML'>"
p171
sS'datetime'
p172
S"<module 'datetime' from '/usr/lib/python2.7/lib-dynload/datetime.i386-linux-gnu.so'>"
p173
sS'ON'
p174
S'True'
p175
sS'OL'
p176
S"<class 'gluon.html.OL'>"
p177
sS'TEXTAREA'
p178
S"<class 'gluon.html.TEXTAREA'>"
p179
sS'MENU'
p180
S"<class 'gluon.html.MENU'>"
p181
sS'IS_IMAGE'
p182
S"<class 'gluon.validators.IS_IMAGE'>"
p183
sS'EM'
p184
S"<class 'gluon.html.EM'>"
p185
sS'CODE'
p186
S"<class 'gluon.html.CODE'>"
p187
sS'HTTP'
p188
S"<class 'gluon.http.HTTP'>"
p189
sS'HR'
p190
S"<class 'gluon.html.HR'>"
p191
sS'IS_DATETIME'
p192
S"<class 'gluon.validators.IS_DATETIME'>"
p193
sS'STYLE'
p194
S"<class 'gluon.html.STYLE'>"
p195
sS'LABEL'
p196
S"<class 'gluon.html.LABEL'>"
p197
sS'CLEANUP'
p198
S"<class 'gluon.validators.CLEANUP'>"
p199
sS'plugins'
p200
S'<gluon.tools.PluginManager object>'
p201
sS'SELECT'
p202
S"<class 'gluon.html.SELECT'>"
p203
sS'use_janrain'
p204
S'<function use_janrain>'
p205
sS'CENTER'
p206
S"<class 'gluon.html.CENTER'>"
p207
sS'prettydate'
p208
S'<function prettydate>'
p209
sS'Crud'
p210
S"<class 'gluon.tools.Crud'>"
p211
sS'Auth'
p212
S"<class 'gluon.tools.Auth'>"
p213
sS'DEVELOPMENT_MENU'
p214
g175
sS'__builtins__'
p215
S"{'ArithmeticError': <type 'exceptions.ArithmeticError'>, 'AssertionError': <type 'exceptions.AssertionError'>, 'AttributeError': <type 'exceptions.AttributeError'>, 'BaseException': <type 'exceptions.BaseException'>, 'BufferError': <type 'exceptions.BufferError'>, 'BytesWarning': <type 'exceptions.BytesWarning'>, 'DeprecationWarning': <type 'exceptions.DeprecationWarning'>, 'EOFError': <type 'exceptions.EOFError'>, 'Ellipsis': Ellipsis, 'EnvironmentError': <type 'exceptions.EnvironmentError'>, ...}"
p216
sS'HTML'
p217
S"<class 'gluon.html.HTML'>"
p218
sS'SQLFORM'
p219
S"<class 'gluon.sqlhtml.SQLFORM'>"
p220
sS'LOAD'
p221
S'<function LOAD>'
p222
sS'redirect'
p223
S'<function redirect>'
p224
sS'FIELDSET'
p225
S"<class 'gluon.html.FIELDSET'>"
p226
sS'IS_EQUAL_TO'
p227
S"<class 'gluon.validators.IS_EQUAL_TO'>"
p228
sS'embed64'
p229
S'<function embed64>'
p230
sS'IS_LIST_OF'
p231
S"<class 'gluon.validators.IS_LIST_OF'>"
p232
sS'INPUT'
p233
S"<class 'gluon.html.INPUT'>"
p234
sS'EMBED'
p235
S"<class 'gluon.html.EMBED'>"
p236
sS'_'
S'<function _>'
p237
sS'H2'
p238
S"<class 'gluon.html.H2'>"
p239
sS'H3'
p240
S"<class 'gluon.html.H3'>"
p241
sS'BUTTON'
p242
S"<class 'gluon.html.BUTTON'>"
p243
sS'H1'
p244
S"<class 'gluon.html.H1'>"
p245
sS'H6'
p246
S"<class 'gluon.html.H6'>"
p247
sS'H4'
p248
S"<class 'gluon.html.H4'>"
p249
sS'H5'
p250
S"<class 'gluon.html.H5'>"
p251
sS'UL'
p252
S"<class 'gluon.html.UL'>"
p253
sS'IS_UPPER'
p254
S"<class 'gluon.validators.IS_UPPER'>"
p255
sS'xmlescape'
p256
S'<function xmlescape>'
p257
sS'IS_TIME'
p258
S"<class 'gluon.validators.IS_TIME'>"
p259
sS'OPTION'
p260
S"<class 'gluon.html.OPTION'>"
p261
sS'TITLE'
p262
S"<class 'gluon.html.TITLE'>"
p263
sS'CRYPT'
p264
S"<class 'gluon.validators.CRYPT'>"
p265
sS'IS_EMPTY_OR'
p266
S"<class 'gluon.validators.IS_EMPTY_OR'>"
p267
sS'MARKMIN'
p268
S"<class 'gluon.html.MARKMIN'>"
p269
sS'__name__'
p270
S"'__restricted__'"
p271
sS'message'
p272
S"<lazyT 'Hello World!!'>"
p273
sS'STRONG'
p274
S"<class 'gluon.html.STRONG'>"
p275
sS'COL'
p276
S"<class 'gluon.html.COL'>"
p277
sS'rows'
p278
S'<Rows (19)>'
p279
sS'service'
p280
S'<gluon.tools.Service object>'
p281
sS'SCRIPT'
p282
S"<class 'gluon.html.SCRIPT'>"
p283
sS'TABLE'
p284
S"<class 'gluon.html.TABLE'>"
p285
sS'IS_IPV4'
p286
S"<class 'gluon.validators.IS_IPV4'>"
p287
sS'IS_LENGTH'
p288
S"<class 'gluon.validators.IS_LENGTH'>"
p289
sS'IS_IPV6'
p290
S"<class 'gluon.validators.IS_IPV6'>"
p291
sS'XML'
p292
S"<class 'gluon.html.XML'>"
p293
sS'B'
S"<class 'gluon.html.B'>"
p294
sS'IMG'
p295
S"<class 'gluon.html.IMG'>"
p296
sS'SQLTABLE'
p297
S"<class 'gluon.sqlhtml.SQLTABLE'>"
p298
sS'IS_MATCH'
p299
S"<class 'gluon.validators.IS_MATCH'>"
p300
sS'IS_ALPHANUMERIC'
p301
S"<class 'gluon.validators.IS_ALPHANUMERIC'>"
p302
sS'SPAN'
p303
S"<class 'gluon.html.SPAN'>"
p304
sS'IS_JSON'
p305
S"<class 'gluon.validators.IS_JSON'>"
p306
sS'IS_IPADDRESS'
p307
S"<class 'gluon.validators.IS_IPADDRESS'>"
p308
sS'IS_SLUG'
p309
S"<class 'gluon.validators.IS_SLUG'>"
p310
sS'r'
S"<Row {'dates': 'March 30, 2014', 'review': 'the ... 'Dr. James J. Yarmus', 'id': 854L, 'types': 1L}>"
p311
sS'META'
p312
S"<class 'gluon.html.META'>"
p313
sS'IS_DATE'
p314
S"<class 'gluon.validators.IS_DATE'>"
p315
sS'IS_EMAIL'
p316
S"<class 'gluon.validators.IS_EMAIL'>"
p317
sS'IS_NOT_EMPTY'
p318
S"<class 'gluon.validators.IS_NOT_EMPTY'>"
p319
sS'IS_FLOAT_IN_RANGE'
p320
S"<class 'gluon.validators.IS_FLOAT_IN_RANGE'>"
p321
sS'BEAUTIFY'
p322
S"<class 'gluon.html.BEAUTIFY'>"
p323
sS'TBODY'
p324
S"<class 'gluon.html.TBODY'>"
p325
sS'CAT'
p326
S"<class 'gluon.html.CAT'>"
p327
sS'Field'
p328
S"<class 'gluon.dal.Field'>"
p329
sS'IS_LIST_OF_EMAILS'
p330
S"<class 'gluon.validators.IS_LIST_OF_EMAILS'>"
p331
sS'DIV'
p332
S"<class 'gluon.html.DIV'>"
p333
sS'LEGEND'
p334
S"<class 'gluon.html.LEGEND'>"
p335
sS'COLGROUP'
p336
S"<class 'gluon.html.COLGROUP'>"
p337
sS'DAL'
p338
S"<class 'gluon.dal.DAL'>"
p339
sS'TT'
p340
S"<class 'gluon.html.TT'>"
p341
sS'TR'
p342
S"<class 'gluon.html.TR'>"
p343
sS'LI'
p344
S"<class 'gluon.html.LI'>"
p345
sS'TH'
p346
S"<class 'gluon.html.TH'>"
p347
sS'TD'
p348
S"<class 'gluon.html.TD'>"
p349
sS'PluginManager'
p350
S"<class 'gluon.tools.PluginManager'>"
p351
sS'IS_URL'
p352
S"<class 'gluon.validators.IS_URL'>"
p353
sS'A'
S"<class 'gluon.html.A'>"
p354
sS'HEAD'
p355
S"<class 'gluon.html.HEAD'>"
p356
sS'IS_DATETIME_IN_RANGE'
p357
S"<class 'gluon.validators.IS_DATETIME_IN_RANGE'>"
p358
sS'FORM'
p359
S"<class 'gluon.html.FORM'>"
p360
sS'I'
S"<class 'gluon.html.I'>"
p361
sS'crud'
p362
S'<gluon.tools.Crud object>'
p363
sS'IS_NOT_IN_DB'
p364
S"<class 'gluon.validators.IS_NOT_IN_DB'>"
p365
sg114
S"<Storage {'body': <cStringIO.StringO object at 0...at 0xabee8fb4>, 'view': 'default/features.html'}>"
p366
sS'THEAD'
p367
S"<class 'gluon.html.THEAD'>"
p368
sS'ANY_OF'
p369
S"<class 'gluon.validators.ANY_OF'>"
p370
sS'IS_NULL_OR'
p371
S"<class 'gluon.validators.IS_EMPTY_OR'>"
p372
sg56
S"<Storage {'_vars': None, 'function': 'features',...untu/Project/web2py/applications/PhoneReviews/'}>"
p373
sS'IS_EXPR'
p374
S"<class 'gluon.validators.IS_EXPR'>"
p375
sS'T'
S'<gluon.languages.translator object>'
p376
sS'IS_IN_SET'
p377
S"<class 'gluon.validators.IS_IN_SET'>"
p378
sS'IS_UPLOAD_FILENAME'
p379
S"<class 'gluon.validators.IS_UPLOAD_FILENAME'>"
p380
sS'time'
p381
S"<module 'time' (built-in)>"
p382
sS'IS_DECIMAL_IN_RANGE'
p383
S"<class 'gluon.validators.IS_DECIMAL_IN_RANGE'>"
p384
sssS'traceback'
p385
S'Traceback (most recent call last):\n  File "/home/darshan-ubuntu/Project/web2py/gluon/restricted.py", line 220, in restricted\n    exec ccode in environment\n  File "/home/darshan-ubuntu/Project/web2py/applications/PhoneReviews/views/default/features.html", line 8, in <module>\n    google.load(\'visualization\', \'1.1\', {\'packages\':[\'annotationchart\']});\nNameError: name \'date\' is not defined\n'
p386
s.